

Microchip MPLAB XC8 Assembler V2.10 build 88905656 
                                                                                               Sun Nov 24 01:47:37 2019

Microchip MPLAB XC8 C Compiler v2.10 (Free license) build 20190730164152 Og1 
     1                           	processor	16F18346
     2                           	opt	pw 120
     3                           	opt	flic
     4                           	psect	stringtext1,global,class=STRCODE,delta=2
     5                           	psect	cinit,global,class=CODE,merge=1,delta=2
     6                           	psect	bssBANK0,global,class=BANK0,space=1,delta=1
     7                           	psect	clrtext,global,class=CODE,delta=2
     8                           	psect	cstackCOMMON,global,class=COMMON,space=1,delta=1
     9                           	psect	cstackBANK0,global,class=BANK0,space=1,delta=1
    10                           	psect	maintext,global,class=CODE,merge=1,split=1,delta=2
    11                           	psect	text1,local,class=CODE,merge=1,delta=2
    12                           	psect	text2,local,class=CODE,merge=1,delta=2
    13                           	psect	text3,local,class=CODE,merge=1,delta=2
    14                           	psect	text4,local,class=CODE,merge=1,delta=2
    15                           	psect	text5,local,class=CODE,merge=1,delta=2
    16                           	psect	text6,local,class=CODE,merge=1,delta=2
    17                           	psect	text7,local,class=CODE,merge=1,delta=2
    18                           	psect	text8,local,class=CODE,merge=1,delta=2
    19                           	psect	text9,local,class=CODE,merge=1,delta=2
    20                           	psect	text10,local,class=CODE,merge=1,delta=2
    21                           	psect	text11,local,class=CODE,merge=1,delta=2
    22                           	psect	text12,local,class=CODE,merge=1,delta=2
    23                           	psect	text13,local,class=CODE,merge=1,inline,delta=2
    24                           	psect	text14,local,class=CODE,merge=1,inline,delta=2
    25                           	psect	text15,local,class=CODE,merge=1,delta=2
    26                           	psect	text16,local,class=CODE,merge=1,delta=2
    27                           	psect	text17,local,class=CODE,merge=1,inline,delta=2
    28                           	psect	text18,local,class=CODE,merge=1,delta=2
    29                           	psect	text19,local,class=CODE,merge=1,inline,delta=2
    30                           	psect	text20,local,class=CODE,merge=1,inline,delta=2
    31                           	psect	text21,local,class=CODE,merge=1,inline,delta=2
    32                           	psect	intentry,global,class=CODE,delta=2
    33                           	psect	text23,local,class=CODE,merge=1,delta=2
    34                           	psect	text24,local,class=CODE,merge=1,inline,delta=2
    35                           	psect	text25,local,class=CODE,merge=1,inline,delta=2
    36                           	psect	text26,local,class=CODE,merge=1,delta=2
    37                           	psect	text27,local,class=CODE,merge=1,delta=2
    38                           	psect	text28,local,class=CODE,merge=1,delta=2
    39                           	psect	text29,local,class=CODE,merge=1,delta=2
    40                           	psect	text30,local,class=CODE,merge=1,delta=2
    41                           	psect	text31,local,class=CODE,merge=1,delta=2
    42                           	psect	text32,local,class=CODE,merge=1,delta=2
    43                           	psect	text33,local,class=CODE,merge=1,delta=2
    44                           	psect	text34,local,class=CODE,merge=1,delta=2
    45                           	psect	text35,local,class=CODE,merge=1,delta=2
    46                           	psect	text36,local,class=CODE,merge=1,delta=2
    47                           	psect	text37,local,class=CODE,merge=1,delta=2
    48                           	psect	text38,local,class=CODE,merge=1,delta=2
    49                           	psect	text39,local,class=CODE,merge=1,delta=2
    50                           	psect	text40,local,class=CODE,merge=1,delta=2
    51                           	psect	text41,local,class=CODE,merge=1,delta=2
    52                           	psect	text42,local,class=CODE,merge=1,inline,delta=2
    53                           	psect	text43,local,class=CODE,merge=1,inline,delta=2
    54                           	psect	text44,local,class=CODE,merge=1,inline,delta=2
    55                           	psect	text45,local,class=CODE,merge=1,inline,delta=2
    56                           	psect	text46,local,class=CODE,merge=1,inline,delta=2
    57                           	psect	text47,local,class=CODE,merge=1,inline,delta=2
    58                           	psect	text48,local,class=CODE,merge=1,inline,delta=2
    59                           	psect	text49,local,class=CODE,merge=1,delta=2
    60                           	psect	text50,local,class=CODE,merge=1,delta=2
    61                           	psect	text51,local,class=CODE,merge=1,delta=2
    62                           	psect	text52,local,class=CODE,merge=1,delta=2
    63                           	psect	text53,local,class=CODE,merge=1,delta=2
    64                           	psect	text54,local,class=CODE,merge=1,delta=2
    65                           	psect	text55,local,class=CODE,merge=1,delta=2
    66                           	psect	text56,local,class=CODE,merge=1,delta=2
    67                           	psect	text57,local,class=CODE,merge=1,delta=2
    68                           	psect	text58,local,class=CODE,merge=1,delta=2
    69                           	psect	text59,local,class=CODE,merge=1,inline,delta=2
    70                           	psect	text60,local,class=CODE,merge=1,inline,delta=2
    71                           	dabs	1,0x7E,2
    72  0000                     
    73                           ; Version 2.10
    74                           ; Generated 31/07/2019 GMT
    75                           ; 
    76                           ; Copyright © 2019, Microchip Technology Inc. and its subsidiaries ("Microchip")
    77                           ; All rights reserved.
    78                           ; 
    79                           ; This software is developed by Microchip Technology Inc. and its subsidiaries ("Microch
      +                          ip").
    80                           ; 
    81                           ; Redistribution and use in source and binary forms, with or without modification, are
    82                           ; permitted provided that the following conditions are met:
    83                           ; 
    84                           ;     1. Redistributions of source code must retain the above copyright notice, this lis
      +                          t of
    85                           ;        conditions and the following disclaimer.
    86                           ; 
    87                           ;     2. Redistributions in binary form must reproduce the above copyright notice, this 
      +                          list
    88                           ;        of conditions and the following disclaimer in the documentation and/or other
    89                           ;        materials provided with the distribution.
    90                           ; 
    91                           ;     3. Microchip's name may not be used to endorse or promote products derived from th
      +                          is
    92                           ;        software without specific prior written permission.
    93                           ; 
    94                           ; THIS SOFTWARE IS PROVIDED BY MICROCHIP "AS IS" AND ANY EXPRESS OR IMPLIED WARRANTIES,
    95                           ; INCLUDING, BUT NOT LIMITED TO, THE IMPLIED WARRANTIES OF MERCHANTABILITY AND FITNESS F
      +                          OR
    96                           ; PURPOSE ARE DISCLAIMED.  IN NO EVENT SHALL MICROCHIP BE LIABLE FOR ANY DIRECT, INDIREC
      +                          T,
    97                           ; INCIDENTAL, SPECIAL, EXEMPLARY, OR CONSEQUENTIAL DAMAGES (INCLUDING BUT NOT LIMITED TO
    98                           ; PROCUREMENT OF SUBSTITUTE GOODS OR SERVICES; LOSS OF USE, DATA OR PROFITS; OR BUSINESS
    99                           ; INTERRUPTION) HOWSOEVER CAUSED AND ON ANY THEORY OF LIABILITY, WHETHER IN CONTRACT, ST
      +                          RICT
   100                           ; LIABILITY, OR TORT (INCLUDING NEGLIGENCE OR OTHERWISE) ARISING IN ANY WAY OUT OF THE U
      +                          SE OF
   101                           ; THIS SOFTWARE, EVEN IF ADVISED OF THE POSSIBILITY OF SUCH DAMAGE.
   102                           ; 
   103                           ; 
   104                           ; Code-generator required, PIC16F18346 Definitions
   105                           ; 
   106                           ; SFR Addresses
   107  0000                     	;# 
   108  0001                     	;# 
   109  0002                     	;# 
   110  0003                     	;# 
   111  0004                     	;# 
   112  0005                     	;# 
   113  0006                     	;# 
   114  0007                     	;# 
   115  0008                     	;# 
   116  0009                     	;# 
   117  000A                     	;# 
   118  000B                     	;# 
   119  000C                     	;# 
   120  000D                     	;# 
   121  000E                     	;# 
   122  0010                     	;# 
   123  0011                     	;# 
   124  0012                     	;# 
   125  0013                     	;# 
   126  0014                     	;# 
   127  0015                     	;# 
   128  0015                     	;# 
   129  0016                     	;# 
   130  0016                     	;# 
   131  0017                     	;# 
   132  0018                     	;# 
   133  0019                     	;# 
   134  0019                     	;# 
   135  001A                     	;# 
   136  001B                     	;# 
   137  001C                     	;# 
   138  001D                     	;# 
   139  001E                     	;# 
   140  001F                     	;# 
   141  008C                     	;# 
   142  008D                     	;# 
   143  008E                     	;# 
   144  0090                     	;# 
   145  0091                     	;# 
   146  0092                     	;# 
   147  0093                     	;# 
   148  0094                     	;# 
   149  0097                     	;# 
   150  009B                     	;# 
   151  009B                     	;# 
   152  009C                     	;# 
   153  009D                     	;# 
   154  009E                     	;# 
   155  009F                     	;# 
   156  010C                     	;# 
   157  010D                     	;# 
   158  010E                     	;# 
   159  0111                     	;# 
   160  0112                     	;# 
   161  0113                     	;# 
   162  0114                     	;# 
   163  0115                     	;# 
   164  0116                     	;# 
   165  0117                     	;# 
   166  0118                     	;# 
   167  0119                     	;# 
   168  018C                     	;# 
   169  018D                     	;# 
   170  018E                     	;# 
   171  0197                     	;# 
   172  0199                     	;# 
   173  0199                     	;# 
   174  0199                     	;# 
   175  019A                     	;# 
   176  019A                     	;# 
   177  019A                     	;# 
   178  019B                     	;# 
   179  019B                     	;# 
   180  019B                     	;# 
   181  019B                     	;# 
   182  019B                     	;# 
   183  019C                     	;# 
   184  019C                     	;# 
   185  019C                     	;# 
   186  019D                     	;# 
   187  019D                     	;# 
   188  019D                     	;# 
   189  019E                     	;# 
   190  019E                     	;# 
   191  019E                     	;# 
   192  019F                     	;# 
   193  019F                     	;# 
   194  019F                     	;# 
   195  019F                     	;# 
   196  019F                     	;# 
   197  020C                     	;# 
   198  020D                     	;# 
   199  020E                     	;# 
   200  0211                     	;# 
   201  0211                     	;# 
   202  0212                     	;# 
   203  0212                     	;# 
   204  0213                     	;# 
   205  0213                     	;# 
   206  0214                     	;# 
   207  0214                     	;# 
   208  0215                     	;# 
   209  0215                     	;# 
   210  0215                     	;# 
   211  0215                     	;# 
   212  0216                     	;# 
   213  0216                     	;# 
   214  0217                     	;# 
   215  0217                     	;# 
   216  0219                     	;# 
   217  021A                     	;# 
   218  021B                     	;# 
   219  021C                     	;# 
   220  021D                     	;# 
   221  021D                     	;# 
   222  021E                     	;# 
   223  021F                     	;# 
   224  028C                     	;# 
   225  028D                     	;# 
   226  028E                     	;# 
   227  0291                     	;# 
   228  0291                     	;# 
   229  0292                     	;# 
   230  0293                     	;# 
   231  0294                     	;# 
   232  0295                     	;# 
   233  0295                     	;# 
   234  0296                     	;# 
   235  0297                     	;# 
   236  0298                     	;# 
   237  029F                     	;# 
   238  030C                     	;# 
   239  030D                     	;# 
   240  030E                     	;# 
   241  0311                     	;# 
   242  0311                     	;# 
   243  0312                     	;# 
   244  0313                     	;# 
   245  0314                     	;# 
   246  0315                     	;# 
   247  0315                     	;# 
   248  0316                     	;# 
   249  0317                     	;# 
   250  0318                     	;# 
   251  038C                     	;# 
   252  038D                     	;# 
   253  038E                     	;# 
   254  0391                     	;# 
   255  0392                     	;# 
   256  0393                     	;# 
   257  0394                     	;# 
   258  0395                     	;# 
   259  0396                     	;# 
   260  0397                     	;# 
   261  0398                     	;# 
   262  0399                     	;# 
   263  039A                     	;# 
   264  039C                     	;# 
   265  039D                     	;# 
   266  039E                     	;# 
   267  039F                     	;# 
   268  0411                     	;# 
   269  0411                     	;# 
   270  0412                     	;# 
   271  0413                     	;# 
   272  0414                     	;# 
   273  0415                     	;# 
   274  0416                     	;# 
   275  0417                     	;# 
   276  0418                     	;# 
   277  0418                     	;# 
   278  0419                     	;# 
   279  041A                     	;# 
   280  041B                     	;# 
   281  041C                     	;# 
   282  041D                     	;# 
   283  041E                     	;# 
   284  041F                     	;# 
   285  0498                     	;# 
   286  0498                     	;# 
   287  0499                     	;# 
   288  049A                     	;# 
   289  049B                     	;# 
   290  049B                     	;# 
   291  049C                     	;# 
   292  049D                     	;# 
   293  049E                     	;# 
   294  049F                     	;# 
   295  0617                     	;# 
   296  0618                     	;# 
   297  0619                     	;# 
   298  0619                     	;# 
   299  061A                     	;# 
   300  061B                     	;# 
   301  061C                     	;# 
   302  061C                     	;# 
   303  061F                     	;# 
   304  0691                     	;# 
   305  0692                     	;# 
   306  0693                     	;# 
   307  0694                     	;# 
   308  0695                     	;# 
   309  0696                     	;# 
   310  0697                     	;# 
   311  0698                     	;# 
   312  0699                     	;# 
   313  0711                     	;# 
   314  0712                     	;# 
   315  0713                     	;# 
   316  0714                     	;# 
   317  0715                     	;# 
   318  0716                     	;# 
   319  0717                     	;# 
   320  0718                     	;# 
   321  0719                     	;# 
   322  0891                     	;# 
   323  0891                     	;# 
   324  0891                     	;# 
   325  0891                     	;# 
   326  0891                     	;# 
   327  0891                     	;# 
   328  0892                     	;# 
   329  0892                     	;# 
   330  0892                     	;# 
   331  0893                     	;# 
   332  0893                     	;# 
   333  0893                     	;# 
   334  0893                     	;# 
   335  0893                     	;# 
   336  0893                     	;# 
   337  0894                     	;# 
   338  0894                     	;# 
   339  0894                     	;# 
   340  0895                     	;# 
   341  0895                     	;# 
   342  0895                     	;# 
   343  0896                     	;# 
   344  0896                     	;# 
   345  0896                     	;# 
   346  089B                     	;# 
   347  0911                     	;# 
   348  0912                     	;# 
   349  0913                     	;# 
   350  0914                     	;# 
   351  0915                     	;# 
   352  0916                     	;# 
   353  0918                     	;# 
   354  0919                     	;# 
   355  091A                     	;# 
   356  091B                     	;# 
   357  091C                     	;# 
   358  091D                     	;# 
   359  091E                     	;# 
   360  091F                     	;# 
   361  0E0F                     	;# 
   362  0E10                     	;# 
   363  0E11                     	;# 
   364  0E12                     	;# 
   365  0E13                     	;# 
   366  0E14                     	;# 
   367  0E15                     	;# 
   368  0E16                     	;# 
   369  0E17                     	;# 
   370  0E18                     	;# 
   371  0E19                     	;# 
   372  0E1A                     	;# 
   373  0E1B                     	;# 
   374  0E1C                     	;# 
   375  0E1D                     	;# 
   376  0E1E                     	;# 
   377  0E1F                     	;# 
   378  0E20                     	;# 
   379  0E21                     	;# 
   380  0E22                     	;# 
   381  0E24                     	;# 
   382  0E25                     	;# 
   383  0E28                     	;# 
   384  0E29                     	;# 
   385  0E2A                     	;# 
   386  0E2B                     	;# 
   387  0E2C                     	;# 
   388  0E2D                     	;# 
   389  0E2E                     	;# 
   390  0E2F                     	;# 
   391  0E90                     	;# 
   392  0E91                     	;# 
   393  0E92                     	;# 
   394  0E94                     	;# 
   395  0E95                     	;# 
   396  0E9C                     	;# 
   397  0E9D                     	;# 
   398  0E9E                     	;# 
   399  0E9F                     	;# 
   400  0EA0                     	;# 
   401  0EA1                     	;# 
   402  0EA2                     	;# 
   403  0EA3                     	;# 
   404  0EA4                     	;# 
   405  0EA5                     	;# 
   406  0EA6                     	;# 
   407  0EA7                     	;# 
   408  0F0F                     	;# 
   409  0F10                     	;# 
   410  0F11                     	;# 
   411  0F12                     	;# 
   412  0F13                     	;# 
   413  0F14                     	;# 
   414  0F15                     	;# 
   415  0F16                     	;# 
   416  0F17                     	;# 
   417  0F18                     	;# 
   418  0F19                     	;# 
   419  0F1A                     	;# 
   420  0F1B                     	;# 
   421  0F1C                     	;# 
   422  0F1D                     	;# 
   423  0F1E                     	;# 
   424  0F1F                     	;# 
   425  0F20                     	;# 
   426  0F21                     	;# 
   427  0F22                     	;# 
   428  0F23                     	;# 
   429  0F24                     	;# 
   430  0F25                     	;# 
   431  0F26                     	;# 
   432  0F27                     	;# 
   433  0F28                     	;# 
   434  0F29                     	;# 
   435  0F2A                     	;# 
   436  0F2B                     	;# 
   437  0F2C                     	;# 
   438  0F2D                     	;# 
   439  0F2E                     	;# 
   440  0F2F                     	;# 
   441  0F30                     	;# 
   442  0F31                     	;# 
   443  0F32                     	;# 
   444  0F33                     	;# 
   445  0F34                     	;# 
   446  0F35                     	;# 
   447  0F36                     	;# 
   448  0F37                     	;# 
   449  0FE4                     	;# 
   450  0FE5                     	;# 
   451  0FE6                     	;# 
   452  0FE7                     	;# 
   453  0FE8                     	;# 
   454  0FE9                     	;# 
   455  0FEA                     	;# 
   456  0FEB                     	;# 
   457  0FED                     	;# 
   458  0FEE                     	;# 
   459  0FEF                     	;# 
   460  0000                     	;# 
   461  0001                     	;# 
   462  0002                     	;# 
   463  0003                     	;# 
   464  0004                     	;# 
   465  0005                     	;# 
   466  0006                     	;# 
   467  0007                     	;# 
   468  0008                     	;# 
   469  0009                     	;# 
   470  000A                     	;# 
   471  000B                     	;# 
   472  000C                     	;# 
   473  000D                     	;# 
   474  000E                     	;# 
   475  0010                     	;# 
   476  0011                     	;# 
   477  0012                     	;# 
   478  0013                     	;# 
   479  0014                     	;# 
   480  0015                     	;# 
   481  0015                     	;# 
   482  0016                     	;# 
   483  0016                     	;# 
   484  0017                     	;# 
   485  0018                     	;# 
   486  0019                     	;# 
   487  0019                     	;# 
   488  001A                     	;# 
   489  001B                     	;# 
   490  001C                     	;# 
   491  001D                     	;# 
   492  001E                     	;# 
   493  001F                     	;# 
   494  008C                     	;# 
   495  008D                     	;# 
   496  008E                     	;# 
   497  0090                     	;# 
   498  0091                     	;# 
   499  0092                     	;# 
   500  0093                     	;# 
   501  0094                     	;# 
   502  0097                     	;# 
   503  009B                     	;# 
   504  009B                     	;# 
   505  009C                     	;# 
   506  009D                     	;# 
   507  009E                     	;# 
   508  009F                     	;# 
   509  010C                     	;# 
   510  010D                     	;# 
   511  010E                     	;# 
   512  0111                     	;# 
   513  0112                     	;# 
   514  0113                     	;# 
   515  0114                     	;# 
   516  0115                     	;# 
   517  0116                     	;# 
   518  0117                     	;# 
   519  0118                     	;# 
   520  0119                     	;# 
   521  018C                     	;# 
   522  018D                     	;# 
   523  018E                     	;# 
   524  0197                     	;# 
   525  0199                     	;# 
   526  0199                     	;# 
   527  0199                     	;# 
   528  019A                     	;# 
   529  019A                     	;# 
   530  019A                     	;# 
   531  019B                     	;# 
   532  019B                     	;# 
   533  019B                     	;# 
   534  019B                     	;# 
   535  019B                     	;# 
   536  019C                     	;# 
   537  019C                     	;# 
   538  019C                     	;# 
   539  019D                     	;# 
   540  019D                     	;# 
   541  019D                     	;# 
   542  019E                     	;# 
   543  019E                     	;# 
   544  019E                     	;# 
   545  019F                     	;# 
   546  019F                     	;# 
   547  019F                     	;# 
   548  019F                     	;# 
   549  019F                     	;# 
   550  020C                     	;# 
   551  020D                     	;# 
   552  020E                     	;# 
   553  0211                     	;# 
   554  0211                     	;# 
   555  0212                     	;# 
   556  0212                     	;# 
   557  0213                     	;# 
   558  0213                     	;# 
   559  0214                     	;# 
   560  0214                     	;# 
   561  0215                     	;# 
   562  0215                     	;# 
   563  0215                     	;# 
   564  0215                     	;# 
   565  0216                     	;# 
   566  0216                     	;# 
   567  0217                     	;# 
   568  0217                     	;# 
   569  0219                     	;# 
   570  021A                     	;# 
   571  021B                     	;# 
   572  021C                     	;# 
   573  021D                     	;# 
   574  021D                     	;# 
   575  021E                     	;# 
   576  021F                     	;# 
   577  028C                     	;# 
   578  028D                     	;# 
   579  028E                     	;# 
   580  0291                     	;# 
   581  0291                     	;# 
   582  0292                     	;# 
   583  0293                     	;# 
   584  0294                     	;# 
   585  0295                     	;# 
   586  0295                     	;# 
   587  0296                     	;# 
   588  0297                     	;# 
   589  0298                     	;# 
   590  029F                     	;# 
   591  030C                     	;# 
   592  030D                     	;# 
   593  030E                     	;# 
   594  0311                     	;# 
   595  0311                     	;# 
   596  0312                     	;# 
   597  0313                     	;# 
   598  0314                     	;# 
   599  0315                     	;# 
   600  0315                     	;# 
   601  0316                     	;# 
   602  0317                     	;# 
   603  0318                     	;# 
   604  038C                     	;# 
   605  038D                     	;# 
   606  038E                     	;# 
   607  0391                     	;# 
   608  0392                     	;# 
   609  0393                     	;# 
   610  0394                     	;# 
   611  0395                     	;# 
   612  0396                     	;# 
   613  0397                     	;# 
   614  0398                     	;# 
   615  0399                     	;# 
   616  039A                     	;# 
   617  039C                     	;# 
   618  039D                     	;# 
   619  039E                     	;# 
   620  039F                     	;# 
   621  0411                     	;# 
   622  0411                     	;# 
   623  0412                     	;# 
   624  0413                     	;# 
   625  0414                     	;# 
   626  0415                     	;# 
   627  0416                     	;# 
   628  0417                     	;# 
   629  0418                     	;# 
   630  0418                     	;# 
   631  0419                     	;# 
   632  041A                     	;# 
   633  041B                     	;# 
   634  041C                     	;# 
   635  041D                     	;# 
   636  041E                     	;# 
   637  041F                     	;# 
   638  0498                     	;# 
   639  0498                     	;# 
   640  0499                     	;# 
   641  049A                     	;# 
   642  049B                     	;# 
   643  049B                     	;# 
   644  049C                     	;# 
   645  049D                     	;# 
   646  049E                     	;# 
   647  049F                     	;# 
   648  0617                     	;# 
   649  0618                     	;# 
   650  0619                     	;# 
   651  0619                     	;# 
   652  061A                     	;# 
   653  061B                     	;# 
   654  061C                     	;# 
   655  061C                     	;# 
   656  061F                     	;# 
   657  0691                     	;# 
   658  0692                     	;# 
   659  0693                     	;# 
   660  0694                     	;# 
   661  0695                     	;# 
   662  0696                     	;# 
   663  0697                     	;# 
   664  0698                     	;# 
   665  0699                     	;# 
   666  0711                     	;# 
   667  0712                     	;# 
   668  0713                     	;# 
   669  0714                     	;# 
   670  0715                     	;# 
   671  0716                     	;# 
   672  0717                     	;# 
   673  0718                     	;# 
   674  0719                     	;# 
   675  0891                     	;# 
   676  0891                     	;# 
   677  0891                     	;# 
   678  0891                     	;# 
   679  0891                     	;# 
   680  0891                     	;# 
   681  0892                     	;# 
   682  0892                     	;# 
   683  0892                     	;# 
   684  0893                     	;# 
   685  0893                     	;# 
   686  0893                     	;# 
   687  0893                     	;# 
   688  0893                     	;# 
   689  0893                     	;# 
   690  0894                     	;# 
   691  0894                     	;# 
   692  0894                     	;# 
   693  0895                     	;# 
   694  0895                     	;# 
   695  0895                     	;# 
   696  0896                     	;# 
   697  0896                     	;# 
   698  0896                     	;# 
   699  089B                     	;# 
   700  0911                     	;# 
   701  0912                     	;# 
   702  0913                     	;# 
   703  0914                     	;# 
   704  0915                     	;# 
   705  0916                     	;# 
   706  0918                     	;# 
   707  0919                     	;# 
   708  091A                     	;# 
   709  091B                     	;# 
   710  091C                     	;# 
   711  091D                     	;# 
   712  091E                     	;# 
   713  091F                     	;# 
   714  0E0F                     	;# 
   715  0E10                     	;# 
   716  0E11                     	;# 
   717  0E12                     	;# 
   718  0E13                     	;# 
   719  0E14                     	;# 
   720  0E15                     	;# 
   721  0E16                     	;# 
   722  0E17                     	;# 
   723  0E18                     	;# 
   724  0E19                     	;# 
   725  0E1A                     	;# 
   726  0E1B                     	;# 
   727  0E1C                     	;# 
   728  0E1D                     	;# 
   729  0E1E                     	;# 
   730  0E1F                     	;# 
   731  0E20                     	;# 
   732  0E21                     	;# 
   733  0E22                     	;# 
   734  0E24                     	;# 
   735  0E25                     	;# 
   736  0E28                     	;# 
   737  0E29                     	;# 
   738  0E2A                     	;# 
   739  0E2B                     	;# 
   740  0E2C                     	;# 
   741  0E2D                     	;# 
   742  0E2E                     	;# 
   743  0E2F                     	;# 
   744  0E90                     	;# 
   745  0E91                     	;# 
   746  0E92                     	;# 
   747  0E94                     	;# 
   748  0E95                     	;# 
   749  0E9C                     	;# 
   750  0E9D                     	;# 
   751  0E9E                     	;# 
   752  0E9F                     	;# 
   753  0EA0                     	;# 
   754  0EA1                     	;# 
   755  0EA2                     	;# 
   756  0EA3                     	;# 
   757  0EA4                     	;# 
   758  0EA5                     	;# 
   759  0EA6                     	;# 
   760  0EA7                     	;# 
   761  0F0F                     	;# 
   762  0F10                     	;# 
   763  0F11                     	;# 
   764  0F12                     	;# 
   765  0F13                     	;# 
   766  0F14                     	;# 
   767  0F15                     	;# 
   768  0F16                     	;# 
   769  0F17                     	;# 
   770  0F18                     	;# 
   771  0F19                     	;# 
   772  0F1A                     	;# 
   773  0F1B                     	;# 
   774  0F1C                     	;# 
   775  0F1D                     	;# 
   776  0F1E                     	;# 
   777  0F1F                     	;# 
   778  0F20                     	;# 
   779  0F21                     	;# 
   780  0F22                     	;# 
   781  0F23                     	;# 
   782  0F24                     	;# 
   783  0F25                     	;# 
   784  0F26                     	;# 
   785  0F27                     	;# 
   786  0F28                     	;# 
   787  0F29                     	;# 
   788  0F2A                     	;# 
   789  0F2B                     	;# 
   790  0F2C                     	;# 
   791  0F2D                     	;# 
   792  0F2E                     	;# 
   793  0F2F                     	;# 
   794  0F30                     	;# 
   795  0F31                     	;# 
   796  0F32                     	;# 
   797  0F33                     	;# 
   798  0F34                     	;# 
   799  0F35                     	;# 
   800  0F36                     	;# 
   801  0F37                     	;# 
   802  0FE4                     	;# 
   803  0FE5                     	;# 
   804  0FE6                     	;# 
   805  0FE7                     	;# 
   806  0FE8                     	;# 
   807  0FE9                     	;# 
   808  0FEA                     	;# 
   809  0FEB                     	;# 
   810  0FED                     	;# 
   811  0FEE                     	;# 
   812  0FEF                     	;# 
   813  0000                     	;# 
   814  0001                     	;# 
   815  0002                     	;# 
   816  0003                     	;# 
   817  0004                     	;# 
   818  0005                     	;# 
   819  0006                     	;# 
   820  0007                     	;# 
   821  0008                     	;# 
   822  0009                     	;# 
   823  000A                     	;# 
   824  000B                     	;# 
   825  000C                     	;# 
   826  000D                     	;# 
   827  000E                     	;# 
   828  0010                     	;# 
   829  0011                     	;# 
   830  0012                     	;# 
   831  0013                     	;# 
   832  0014                     	;# 
   833  0015                     	;# 
   834  0015                     	;# 
   835  0016                     	;# 
   836  0016                     	;# 
   837  0017                     	;# 
   838  0018                     	;# 
   839  0019                     	;# 
   840  0019                     	;# 
   841  001A                     	;# 
   842  001B                     	;# 
   843  001C                     	;# 
   844  001D                     	;# 
   845  001E                     	;# 
   846  001F                     	;# 
   847  008C                     	;# 
   848  008D                     	;# 
   849  008E                     	;# 
   850  0090                     	;# 
   851  0091                     	;# 
   852  0092                     	;# 
   853  0093                     	;# 
   854  0094                     	;# 
   855  0097                     	;# 
   856  009B                     	;# 
   857  009B                     	;# 
   858  009C                     	;# 
   859  009D                     	;# 
   860  009E                     	;# 
   861  009F                     	;# 
   862  010C                     	;# 
   863  010D                     	;# 
   864  010E                     	;# 
   865  0111                     	;# 
   866  0112                     	;# 
   867  0113                     	;# 
   868  0114                     	;# 
   869  0115                     	;# 
   870  0116                     	;# 
   871  0117                     	;# 
   872  0118                     	;# 
   873  0119                     	;# 
   874  018C                     	;# 
   875  018D                     	;# 
   876  018E                     	;# 
   877  0197                     	;# 
   878  0199                     	;# 
   879  0199                     	;# 
   880  0199                     	;# 
   881  019A                     	;# 
   882  019A                     	;# 
   883  019A                     	;# 
   884  019B                     	;# 
   885  019B                     	;# 
   886  019B                     	;# 
   887  019B                     	;# 
   888  019B                     	;# 
   889  019C                     	;# 
   890  019C                     	;# 
   891  019C                     	;# 
   892  019D                     	;# 
   893  019D                     	;# 
   894  019D                     	;# 
   895  019E                     	;# 
   896  019E                     	;# 
   897  019E                     	;# 
   898  019F                     	;# 
   899  019F                     	;# 
   900  019F                     	;# 
   901  019F                     	;# 
   902  019F                     	;# 
   903  020C                     	;# 
   904  020D                     	;# 
   905  020E                     	;# 
   906  0211                     	;# 
   907  0211                     	;# 
   908  0212                     	;# 
   909  0212                     	;# 
   910  0213                     	;# 
   911  0213                     	;# 
   912  0214                     	;# 
   913  0214                     	;# 
   914  0215                     	;# 
   915  0215                     	;# 
   916  0215                     	;# 
   917  0215                     	;# 
   918  0216                     	;# 
   919  0216                     	;# 
   920  0217                     	;# 
   921  0217                     	;# 
   922  0219                     	;# 
   923  021A                     	;# 
   924  021B                     	;# 
   925  021C                     	;# 
   926  021D                     	;# 
   927  021D                     	;# 
   928  021E                     	;# 
   929  021F                     	;# 
   930  028C                     	;# 
   931  028D                     	;# 
   932  028E                     	;# 
   933  0291                     	;# 
   934  0291                     	;# 
   935  0292                     	;# 
   936  0293                     	;# 
   937  0294                     	;# 
   938  0295                     	;# 
   939  0295                     	;# 
   940  0296                     	;# 
   941  0297                     	;# 
   942  0298                     	;# 
   943  029F                     	;# 
   944  030C                     	;# 
   945  030D                     	;# 
   946  030E                     	;# 
   947  0311                     	;# 
   948  0311                     	;# 
   949  0312                     	;# 
   950  0313                     	;# 
   951  0314                     	;# 
   952  0315                     	;# 
   953  0315                     	;# 
   954  0316                     	;# 
   955  0317                     	;# 
   956  0318                     	;# 
   957  038C                     	;# 
   958  038D                     	;# 
   959  038E                     	;# 
   960  0391                     	;# 
   961  0392                     	;# 
   962  0393                     	;# 
   963  0394                     	;# 
   964  0395                     	;# 
   965  0396                     	;# 
   966  0397                     	;# 
   967  0398                     	;# 
   968  0399                     	;# 
   969  039A                     	;# 
   970  039C                     	;# 
   971  039D                     	;# 
   972  039E                     	;# 
   973  039F                     	;# 
   974  0411                     	;# 
   975  0411                     	;# 
   976  0412                     	;# 
   977  0413                     	;# 
   978  0414                     	;# 
   979  0415                     	;# 
   980  0416                     	;# 
   981  0417                     	;# 
   982  0418                     	;# 
   983  0418                     	;# 
   984  0419                     	;# 
   985  041A                     	;# 
   986  041B                     	;# 
   987  041C                     	;# 
   988  041D                     	;# 
   989  041E                     	;# 
   990  041F                     	;# 
   991  0498                     	;# 
   992  0498                     	;# 
   993  0499                     	;# 
   994  049A                     	;# 
   995  049B                     	;# 
   996  049B                     	;# 
   997  049C                     	;# 
   998  049D                     	;# 
   999  049E                     	;# 
  1000  049F                     	;# 
  1001  0617                     	;# 
  1002  0618                     	;# 
  1003  0619                     	;# 
  1004  0619                     	;# 
  1005  061A                     	;# 
  1006  061B                     	;# 
  1007  061C                     	;# 
  1008  061C                     	;# 
  1009  061F                     	;# 
  1010  0691                     	;# 
  1011  0692                     	;# 
  1012  0693                     	;# 
  1013  0694                     	;# 
  1014  0695                     	;# 
  1015  0696                     	;# 
  1016  0697                     	;# 
  1017  0698                     	;# 
  1018  0699                     	;# 
  1019  0711                     	;# 
  1020  0712                     	;# 
  1021  0713                     	;# 
  1022  0714                     	;# 
  1023  0715                     	;# 
  1024  0716                     	;# 
  1025  0717                     	;# 
  1026  0718                     	;# 
  1027  0719                     	;# 
  1028  0891                     	;# 
  1029  0891                     	;# 
  1030  0891                     	;# 
  1031  0891                     	;# 
  1032  0891                     	;# 
  1033  0891                     	;# 
  1034  0892                     	;# 
  1035  0892                     	;# 
  1036  0892                     	;# 
  1037  0893                     	;# 
  1038  0893                     	;# 
  1039  0893                     	;# 
  1040  0893                     	;# 
  1041  0893                     	;# 
  1042  0893                     	;# 
  1043  0894                     	;# 
  1044  0894                     	;# 
  1045  0894                     	;# 
  1046  0895                     	;# 
  1047  0895                     	;# 
  1048  0895                     	;# 
  1049  0896                     	;# 
  1050  0896                     	;# 
  1051  0896                     	;# 
  1052  089B                     	;# 
  1053  0911                     	;# 
  1054  0912                     	;# 
  1055  0913                     	;# 
  1056  0914                     	;# 
  1057  0915                     	;# 
  1058  0916                     	;# 
  1059  0918                     	;# 
  1060  0919                     	;# 
  1061  091A                     	;# 
  1062  091B                     	;# 
  1063  091C                     	;# 
  1064  091D                     	;# 
  1065  091E                     	;# 
  1066  091F                     	;# 
  1067  0E0F                     	;# 
  1068  0E10                     	;# 
  1069  0E11                     	;# 
  1070  0E12                     	;# 
  1071  0E13                     	;# 
  1072  0E14                     	;# 
  1073  0E15                     	;# 
  1074  0E16                     	;# 
  1075  0E17                     	;# 
  1076  0E18                     	;# 
  1077  0E19                     	;# 
  1078  0E1A                     	;# 
  1079  0E1B                     	;# 
  1080  0E1C                     	;# 
  1081  0E1D                     	;# 
  1082  0E1E                     	;# 
  1083  0E1F                     	;# 
  1084  0E20                     	;# 
  1085  0E21                     	;# 
  1086  0E22                     	;# 
  1087  0E24                     	;# 
  1088  0E25                     	;# 
  1089  0E28                     	;# 
  1090  0E29                     	;# 
  1091  0E2A                     	;# 
  1092  0E2B                     	;# 
  1093  0E2C                     	;# 
  1094  0E2D                     	;# 
  1095  0E2E                     	;# 
  1096  0E2F                     	;# 
  1097  0E90                     	;# 
  1098  0E91                     	;# 
  1099  0E92                     	;# 
  1100  0E94                     	;# 
  1101  0E95                     	;# 
  1102  0E9C                     	;# 
  1103  0E9D                     	;# 
  1104  0E9E                     	;# 
  1105  0E9F                     	;# 
  1106  0EA0                     	;# 
  1107  0EA1                     	;# 
  1108  0EA2                     	;# 
  1109  0EA3                     	;# 
  1110  0EA4                     	;# 
  1111  0EA5                     	;# 
  1112  0EA6                     	;# 
  1113  0EA7                     	;# 
  1114  0F0F                     	;# 
  1115  0F10                     	;# 
  1116  0F11                     	;# 
  1117  0F12                     	;# 
  1118  0F13                     	;# 
  1119  0F14                     	;# 
  1120  0F15                     	;# 
  1121  0F16                     	;# 
  1122  0F17                     	;# 
  1123  0F18                     	;# 
  1124  0F19                     	;# 
  1125  0F1A                     	;# 
  1126  0F1B                     	;# 
  1127  0F1C                     	;# 
  1128  0F1D                     	;# 
  1129  0F1E                     	;# 
  1130  0F1F                     	;# 
  1131  0F20                     	;# 
  1132  0F21                     	;# 
  1133  0F22                     	;# 
  1134  0F23                     	;# 
  1135  0F24                     	;# 
  1136  0F25                     	;# 
  1137  0F26                     	;# 
  1138  0F27                     	;# 
  1139  0F28                     	;# 
  1140  0F29                     	;# 
  1141  0F2A                     	;# 
  1142  0F2B                     	;# 
  1143  0F2C                     	;# 
  1144  0F2D                     	;# 
  1145  0F2E                     	;# 
  1146  0F2F                     	;# 
  1147  0F30                     	;# 
  1148  0F31                     	;# 
  1149  0F32                     	;# 
  1150  0F33                     	;# 
  1151  0F34                     	;# 
  1152  0F35                     	;# 
  1153  0F36                     	;# 
  1154  0F37                     	;# 
  1155  0FE4                     	;# 
  1156  0FE5                     	;# 
  1157  0FE6                     	;# 
  1158  0FE7                     	;# 
  1159  0FE8                     	;# 
  1160  0FE9                     	;# 
  1161  0FEA                     	;# 
  1162  0FEB                     	;# 
  1163  0FED                     	;# 
  1164  0FEE                     	;# 
  1165  0FEF                     	;# 
  1166  0000                     	;# 
  1167  0001                     	;# 
  1168  0002                     	;# 
  1169  0003                     	;# 
  1170  0004                     	;# 
  1171  0005                     	;# 
  1172  0006                     	;# 
  1173  0007                     	;# 
  1174  0008                     	;# 
  1175  0009                     	;# 
  1176  000A                     	;# 
  1177  000B                     	;# 
  1178  000C                     	;# 
  1179  000D                     	;# 
  1180  000E                     	;# 
  1181  0010                     	;# 
  1182  0011                     	;# 
  1183  0012                     	;# 
  1184  0013                     	;# 
  1185  0014                     	;# 
  1186  0015                     	;# 
  1187  0015                     	;# 
  1188  0016                     	;# 
  1189  0016                     	;# 
  1190  0017                     	;# 
  1191  0018                     	;# 
  1192  0019                     	;# 
  1193  0019                     	;# 
  1194  001A                     	;# 
  1195  001B                     	;# 
  1196  001C                     	;# 
  1197  001D                     	;# 
  1198  001E                     	;# 
  1199  001F                     	;# 
  1200  008C                     	;# 
  1201  008D                     	;# 
  1202  008E                     	;# 
  1203  0090                     	;# 
  1204  0091                     	;# 
  1205  0092                     	;# 
  1206  0093                     	;# 
  1207  0094                     	;# 
  1208  0097                     	;# 
  1209  009B                     	;# 
  1210  009B                     	;# 
  1211  009C                     	;# 
  1212  009D                     	;# 
  1213  009E                     	;# 
  1214  009F                     	;# 
  1215  010C                     	;# 
  1216  010D                     	;# 
  1217  010E                     	;# 
  1218  0111                     	;# 
  1219  0112                     	;# 
  1220  0113                     	;# 
  1221  0114                     	;# 
  1222  0115                     	;# 
  1223  0116                     	;# 
  1224  0117                     	;# 
  1225  0118                     	;# 
  1226  0119                     	;# 
  1227  018C                     	;# 
  1228  018D                     	;# 
  1229  018E                     	;# 
  1230  0197                     	;# 
  1231  0199                     	;# 
  1232  0199                     	;# 
  1233  0199                     	;# 
  1234  019A                     	;# 
  1235  019A                     	;# 
  1236  019A                     	;# 
  1237  019B                     	;# 
  1238  019B                     	;# 
  1239  019B                     	;# 
  1240  019B                     	;# 
  1241  019B                     	;# 
  1242  019C                     	;# 
  1243  019C                     	;# 
  1244  019C                     	;# 
  1245  019D                     	;# 
  1246  019D                     	;# 
  1247  019D                     	;# 
  1248  019E                     	;# 
  1249  019E                     	;# 
  1250  019E                     	;# 
  1251  019F                     	;# 
  1252  019F                     	;# 
  1253  019F                     	;# 
  1254  019F                     	;# 
  1255  019F                     	;# 
  1256  020C                     	;# 
  1257  020D                     	;# 
  1258  020E                     	;# 
  1259  0211                     	;# 
  1260  0211                     	;# 
  1261  0212                     	;# 
  1262  0212                     	;# 
  1263  0213                     	;# 
  1264  0213                     	;# 
  1265  0214                     	;# 
  1266  0214                     	;# 
  1267  0215                     	;# 
  1268  0215                     	;# 
  1269  0215                     	;# 
  1270  0215                     	;# 
  1271  0216                     	;# 
  1272  0216                     	;# 
  1273  0217                     	;# 
  1274  0217                     	;# 
  1275  0219                     	;# 
  1276  021A                     	;# 
  1277  021B                     	;# 
  1278  021C                     	;# 
  1279  021D                     	;# 
  1280  021D                     	;# 
  1281  021E                     	;# 
  1282  021F                     	;# 
  1283  028C                     	;# 
  1284  028D                     	;# 
  1285  028E                     	;# 
  1286  0291                     	;# 
  1287  0291                     	;# 
  1288  0292                     	;# 
  1289  0293                     	;# 
  1290  0294                     	;# 
  1291  0295                     	;# 
  1292  0295                     	;# 
  1293  0296                     	;# 
  1294  0297                     	;# 
  1295  0298                     	;# 
  1296  029F                     	;# 
  1297  030C                     	;# 
  1298  030D                     	;# 
  1299  030E                     	;# 
  1300  0311                     	;# 
  1301  0311                     	;# 
  1302  0312                     	;# 
  1303  0313                     	;# 
  1304  0314                     	;# 
  1305  0315                     	;# 
  1306  0315                     	;# 
  1307  0316                     	;# 
  1308  0317                     	;# 
  1309  0318                     	;# 
  1310  038C                     	;# 
  1311  038D                     	;# 
  1312  038E                     	;# 
  1313  0391                     	;# 
  1314  0392                     	;# 
  1315  0393                     	;# 
  1316  0394                     	;# 
  1317  0395                     	;# 
  1318  0396                     	;# 
  1319  0397                     	;# 
  1320  0398                     	;# 
  1321  0399                     	;# 
  1322  039A                     	;# 
  1323  039C                     	;# 
  1324  039D                     	;# 
  1325  039E                     	;# 
  1326  039F                     	;# 
  1327  0411                     	;# 
  1328  0411                     	;# 
  1329  0412                     	;# 
  1330  0413                     	;# 
  1331  0414                     	;# 
  1332  0415                     	;# 
  1333  0416                     	;# 
  1334  0417                     	;# 
  1335  0418                     	;# 
  1336  0418                     	;# 
  1337  0419                     	;# 
  1338  041A                     	;# 
  1339  041B                     	;# 
  1340  041C                     	;# 
  1341  041D                     	;# 
  1342  041E                     	;# 
  1343  041F                     	;# 
  1344  0498                     	;# 
  1345  0498                     	;# 
  1346  0499                     	;# 
  1347  049A                     	;# 
  1348  049B                     	;# 
  1349  049B                     	;# 
  1350  049C                     	;# 
  1351  049D                     	;# 
  1352  049E                     	;# 
  1353  049F                     	;# 
  1354  0617                     	;# 
  1355  0618                     	;# 
  1356  0619                     	;# 
  1357  0619                     	;# 
  1358  061A                     	;# 
  1359  061B                     	;# 
  1360  061C                     	;# 
  1361  061C                     	;# 
  1362  061F                     	;# 
  1363  0691                     	;# 
  1364  0692                     	;# 
  1365  0693                     	;# 
  1366  0694                     	;# 
  1367  0695                     	;# 
  1368  0696                     	;# 
  1369  0697                     	;# 
  1370  0698                     	;# 
  1371  0699                     	;# 
  1372  0711                     	;# 
  1373  0712                     	;# 
  1374  0713                     	;# 
  1375  0714                     	;# 
  1376  0715                     	;# 
  1377  0716                     	;# 
  1378  0717                     	;# 
  1379  0718                     	;# 
  1380  0719                     	;# 
  1381  0891                     	;# 
  1382  0891                     	;# 
  1383  0891                     	;# 
  1384  0891                     	;# 
  1385  0891                     	;# 
  1386  0891                     	;# 
  1387  0892                     	;# 
  1388  0892                     	;# 
  1389  0892                     	;# 
  1390  0893                     	;# 
  1391  0893                     	;# 
  1392  0893                     	;# 
  1393  0893                     	;# 
  1394  0893                     	;# 
  1395  0893                     	;# 
  1396  0894                     	;# 
  1397  0894                     	;# 
  1398  0894                     	;# 
  1399  0895                     	;# 
  1400  0895                     	;# 
  1401  0895                     	;# 
  1402  0896                     	;# 
  1403  0896                     	;# 
  1404  0896                     	;# 
  1405  089B                     	;# 
  1406  0911                     	;# 
  1407  0912                     	;# 
  1408  0913                     	;# 
  1409  0914                     	;# 
  1410  0915                     	;# 
  1411  0916                     	;# 
  1412  0918                     	;# 
  1413  0919                     	;# 
  1414  091A                     	;# 
  1415  091B                     	;# 
  1416  091C                     	;# 
  1417  091D                     	;# 
  1418  091E                     	;# 
  1419  091F                     	;# 
  1420  0E0F                     	;# 
  1421  0E10                     	;# 
  1422  0E11                     	;# 
  1423  0E12                     	;# 
  1424  0E13                     	;# 
  1425  0E14                     	;# 
  1426  0E15                     	;# 
  1427  0E16                     	;# 
  1428  0E17                     	;# 
  1429  0E18                     	;# 
  1430  0E19                     	;# 
  1431  0E1A                     	;# 
  1432  0E1B                     	;# 
  1433  0E1C                     	;# 
  1434  0E1D                     	;# 
  1435  0E1E                     	;# 
  1436  0E1F                     	;# 
  1437  0E20                     	;# 
  1438  0E21                     	;# 
  1439  0E22                     	;# 
  1440  0E24                     	;# 
  1441  0E25                     	;# 
  1442  0E28                     	;# 
  1443  0E29                     	;# 
  1444  0E2A                     	;# 
  1445  0E2B                     	;# 
  1446  0E2C                     	;# 
  1447  0E2D                     	;# 
  1448  0E2E                     	;# 
  1449  0E2F                     	;# 
  1450  0E90                     	;# 
  1451  0E91                     	;# 
  1452  0E92                     	;# 
  1453  0E94                     	;# 
  1454  0E95                     	;# 
  1455  0E9C                     	;# 
  1456  0E9D                     	;# 
  1457  0E9E                     	;# 
  1458  0E9F                     	;# 
  1459  0EA0                     	;# 
  1460  0EA1                     	;# 
  1461  0EA2                     	;# 
  1462  0EA3                     	;# 
  1463  0EA4                     	;# 
  1464  0EA5                     	;# 
  1465  0EA6                     	;# 
  1466  0EA7                     	;# 
  1467  0F0F                     	;# 
  1468  0F10                     	;# 
  1469  0F11                     	;# 
  1470  0F12                     	;# 
  1471  0F13                     	;# 
  1472  0F14                     	;# 
  1473  0F15                     	;# 
  1474  0F16                     	;# 
  1475  0F17                     	;# 
  1476  0F18                     	;# 
  1477  0F19                     	;# 
  1478  0F1A                     	;# 
  1479  0F1B                     	;# 
  1480  0F1C                     	;# 
  1481  0F1D                     	;# 
  1482  0F1E                     	;# 
  1483  0F1F                     	;# 
  1484  0F20                     	;# 
  1485  0F21                     	;# 
  1486  0F22                     	;# 
  1487  0F23                     	;# 
  1488  0F24                     	;# 
  1489  0F25                     	;# 
  1490  0F26                     	;# 
  1491  0F27                     	;# 
  1492  0F28                     	;# 
  1493  0F29                     	;# 
  1494  0F2A                     	;# 
  1495  0F2B                     	;# 
  1496  0F2C                     	;# 
  1497  0F2D                     	;# 
  1498  0F2E                     	;# 
  1499  0F2F                     	;# 
  1500  0F30                     	;# 
  1501  0F31                     	;# 
  1502  0F32                     	;# 
  1503  0F33                     	;# 
  1504  0F34                     	;# 
  1505  0F35                     	;# 
  1506  0F36                     	;# 
  1507  0F37                     	;# 
  1508  0FE4                     	;# 
  1509  0FE5                     	;# 
  1510  0FE6                     	;# 
  1511  0FE7                     	;# 
  1512  0FE8                     	;# 
  1513  0FE9                     	;# 
  1514  0FEA                     	;# 
  1515  0FEB                     	;# 
  1516  0FED                     	;# 
  1517  0FEE                     	;# 
  1518  0FEF                     	;# 
  1519  0000                     	;# 
  1520  0001                     	;# 
  1521  0002                     	;# 
  1522  0003                     	;# 
  1523  0004                     	;# 
  1524  0005                     	;# 
  1525  0006                     	;# 
  1526  0007                     	;# 
  1527  0008                     	;# 
  1528  0009                     	;# 
  1529  000A                     	;# 
  1530  000B                     	;# 
  1531  000C                     	;# 
  1532  000D                     	;# 
  1533  000E                     	;# 
  1534  0010                     	;# 
  1535  0011                     	;# 
  1536  0012                     	;# 
  1537  0013                     	;# 
  1538  0014                     	;# 
  1539  0015                     	;# 
  1540  0015                     	;# 
  1541  0016                     	;# 
  1542  0016                     	;# 
  1543  0017                     	;# 
  1544  0018                     	;# 
  1545  0019                     	;# 
  1546  0019                     	;# 
  1547  001A                     	;# 
  1548  001B                     	;# 
  1549  001C                     	;# 
  1550  001D                     	;# 
  1551  001E                     	;# 
  1552  001F                     	;# 
  1553  008C                     	;# 
  1554  008D                     	;# 
  1555  008E                     	;# 
  1556  0090                     	;# 
  1557  0091                     	;# 
  1558  0092                     	;# 
  1559  0093                     	;# 
  1560  0094                     	;# 
  1561  0097                     	;# 
  1562  009B                     	;# 
  1563  009B                     	;# 
  1564  009C                     	;# 
  1565  009D                     	;# 
  1566  009E                     	;# 
  1567  009F                     	;# 
  1568  010C                     	;# 
  1569  010D                     	;# 
  1570  010E                     	;# 
  1571  0111                     	;# 
  1572  0112                     	;# 
  1573  0113                     	;# 
  1574  0114                     	;# 
  1575  0115                     	;# 
  1576  0116                     	;# 
  1577  0117                     	;# 
  1578  0118                     	;# 
  1579  0119                     	;# 
  1580  018C                     	;# 
  1581  018D                     	;# 
  1582  018E                     	;# 
  1583  0197                     	;# 
  1584  0199                     	;# 
  1585  0199                     	;# 
  1586  0199                     	;# 
  1587  019A                     	;# 
  1588  019A                     	;# 
  1589  019A                     	;# 
  1590  019B                     	;# 
  1591  019B                     	;# 
  1592  019B                     	;# 
  1593  019B                     	;# 
  1594  019B                     	;# 
  1595  019C                     	;# 
  1596  019C                     	;# 
  1597  019C                     	;# 
  1598  019D                     	;# 
  1599  019D                     	;# 
  1600  019D                     	;# 
  1601  019E                     	;# 
  1602  019E                     	;# 
  1603  019E                     	;# 
  1604  019F                     	;# 
  1605  019F                     	;# 
  1606  019F                     	;# 
  1607  019F                     	;# 
  1608  019F                     	;# 
  1609  020C                     	;# 
  1610  020D                     	;# 
  1611  020E                     	;# 
  1612  0211                     	;# 
  1613  0211                     	;# 
  1614  0212                     	;# 
  1615  0212                     	;# 
  1616  0213                     	;# 
  1617  0213                     	;# 
  1618  0214                     	;# 
  1619  0214                     	;# 
  1620  0215                     	;# 
  1621  0215                     	;# 
  1622  0215                     	;# 
  1623  0215                     	;# 
  1624  0216                     	;# 
  1625  0216                     	;# 
  1626  0217                     	;# 
  1627  0217                     	;# 
  1628  0219                     	;# 
  1629  021A                     	;# 
  1630  021B                     	;# 
  1631  021C                     	;# 
  1632  021D                     	;# 
  1633  021D                     	;# 
  1634  021E                     	;# 
  1635  021F                     	;# 
  1636  028C                     	;# 
  1637  028D                     	;# 
  1638  028E                     	;# 
  1639  0291                     	;# 
  1640  0291                     	;# 
  1641  0292                     	;# 
  1642  0293                     	;# 
  1643  0294                     	;# 
  1644  0295                     	;# 
  1645  0295                     	;# 
  1646  0296                     	;# 
  1647  0297                     	;# 
  1648  0298                     	;# 
  1649  029F                     	;# 
  1650  030C                     	;# 
  1651  030D                     	;# 
  1652  030E                     	;# 
  1653  0311                     	;# 
  1654  0311                     	;# 
  1655  0312                     	;# 
  1656  0313                     	;# 
  1657  0314                     	;# 
  1658  0315                     	;# 
  1659  0315                     	;# 
  1660  0316                     	;# 
  1661  0317                     	;# 
  1662  0318                     	;# 
  1663  038C                     	;# 
  1664  038D                     	;# 
  1665  038E                     	;# 
  1666  0391                     	;# 
  1667  0392                     	;# 
  1668  0393                     	;# 
  1669  0394                     	;# 
  1670  0395                     	;# 
  1671  0396                     	;# 
  1672  0397                     	;# 
  1673  0398                     	;# 
  1674  0399                     	;# 
  1675  039A                     	;# 
  1676  039C                     	;# 
  1677  039D                     	;# 
  1678  039E                     	;# 
  1679  039F                     	;# 
  1680  0411                     	;# 
  1681  0411                     	;# 
  1682  0412                     	;# 
  1683  0413                     	;# 
  1684  0414                     	;# 
  1685  0415                     	;# 
  1686  0416                     	;# 
  1687  0417                     	;# 
  1688  0418                     	;# 
  1689  0418                     	;# 
  1690  0419                     	;# 
  1691  041A                     	;# 
  1692  041B                     	;# 
  1693  041C                     	;# 
  1694  041D                     	;# 
  1695  041E                     	;# 
  1696  041F                     	;# 
  1697  0498                     	;# 
  1698  0498                     	;# 
  1699  0499                     	;# 
  1700  049A                     	;# 
  1701  049B                     	;# 
  1702  049B                     	;# 
  1703  049C                     	;# 
  1704  049D                     	;# 
  1705  049E                     	;# 
  1706  049F                     	;# 
  1707  0617                     	;# 
  1708  0618                     	;# 
  1709  0619                     	;# 
  1710  0619                     	;# 
  1711  061A                     	;# 
  1712  061B                     	;# 
  1713  061C                     	;# 
  1714  061C                     	;# 
  1715  061F                     	;# 
  1716  0691                     	;# 
  1717  0692                     	;# 
  1718  0693                     	;# 
  1719  0694                     	;# 
  1720  0695                     	;# 
  1721  0696                     	;# 
  1722  0697                     	;# 
  1723  0698                     	;# 
  1724  0699                     	;# 
  1725  0711                     	;# 
  1726  0712                     	;# 
  1727  0713                     	;# 
  1728  0714                     	;# 
  1729  0715                     	;# 
  1730  0716                     	;# 
  1731  0717                     	;# 
  1732  0718                     	;# 
  1733  0719                     	;# 
  1734  0891                     	;# 
  1735  0891                     	;# 
  1736  0891                     	;# 
  1737  0891                     	;# 
  1738  0891                     	;# 
  1739  0891                     	;# 
  1740  0892                     	;# 
  1741  0892                     	;# 
  1742  0892                     	;# 
  1743  0893                     	;# 
  1744  0893                     	;# 
  1745  0893                     	;# 
  1746  0893                     	;# 
  1747  0893                     	;# 
  1748  0893                     	;# 
  1749  0894                     	;# 
  1750  0894                     	;# 
  1751  0894                     	;# 
  1752  0895                     	;# 
  1753  0895                     	;# 
  1754  0895                     	;# 
  1755  0896                     	;# 
  1756  0896                     	;# 
  1757  0896                     	;# 
  1758  089B                     	;# 
  1759  0911                     	;# 
  1760  0912                     	;# 
  1761  0913                     	;# 
  1762  0914                     	;# 
  1763  0915                     	;# 
  1764  0916                     	;# 
  1765  0918                     	;# 
  1766  0919                     	;# 
  1767  091A                     	;# 
  1768  091B                     	;# 
  1769  091C                     	;# 
  1770  091D                     	;# 
  1771  091E                     	;# 
  1772  091F                     	;# 
  1773  0E0F                     	;# 
  1774  0E10                     	;# 
  1775  0E11                     	;# 
  1776  0E12                     	;# 
  1777  0E13                     	;# 
  1778  0E14                     	;# 
  1779  0E15                     	;# 
  1780  0E16                     	;# 
  1781  0E17                     	;# 
  1782  0E18                     	;# 
  1783  0E19                     	;# 
  1784  0E1A                     	;# 
  1785  0E1B                     	;# 
  1786  0E1C                     	;# 
  1787  0E1D                     	;# 
  1788  0E1E                     	;# 
  1789  0E1F                     	;# 
  1790  0E20                     	;# 
  1791  0E21                     	;# 
  1792  0E22                     	;# 
  1793  0E24                     	;# 
  1794  0E25                     	;# 
  1795  0E28                     	;# 
  1796  0E29                     	;# 
  1797  0E2A                     	;# 
  1798  0E2B                     	;# 
  1799  0E2C                     	;# 
  1800  0E2D                     	;# 
  1801  0E2E                     	;# 
  1802  0E2F                     	;# 
  1803  0E90                     	;# 
  1804  0E91                     	;# 
  1805  0E92                     	;# 
  1806  0E94                     	;# 
  1807  0E95                     	;# 
  1808  0E9C                     	;# 
  1809  0E9D                     	;# 
  1810  0E9E                     	;# 
  1811  0E9F                     	;# 
  1812  0EA0                     	;# 
  1813  0EA1                     	;# 
  1814  0EA2                     	;# 
  1815  0EA3                     	;# 
  1816  0EA4                     	;# 
  1817  0EA5                     	;# 
  1818  0EA6                     	;# 
  1819  0EA7                     	;# 
  1820  0F0F                     	;# 
  1821  0F10                     	;# 
  1822  0F11                     	;# 
  1823  0F12                     	;# 
  1824  0F13                     	;# 
  1825  0F14                     	;# 
  1826  0F15                     	;# 
  1827  0F16                     	;# 
  1828  0F17                     	;# 
  1829  0F18                     	;# 
  1830  0F19                     	;# 
  1831  0F1A                     	;# 
  1832  0F1B                     	;# 
  1833  0F1C                     	;# 
  1834  0F1D                     	;# 
  1835  0F1E                     	;# 
  1836  0F1F                     	;# 
  1837  0F20                     	;# 
  1838  0F21                     	;# 
  1839  0F22                     	;# 
  1840  0F23                     	;# 
  1841  0F24                     	;# 
  1842  0F25                     	;# 
  1843  0F26                     	;# 
  1844  0F27                     	;# 
  1845  0F28                     	;# 
  1846  0F29                     	;# 
  1847  0F2A                     	;# 
  1848  0F2B                     	;# 
  1849  0F2C                     	;# 
  1850  0F2D                     	;# 
  1851  0F2E                     	;# 
  1852  0F2F                     	;# 
  1853  0F30                     	;# 
  1854  0F31                     	;# 
  1855  0F32                     	;# 
  1856  0F33                     	;# 
  1857  0F34                     	;# 
  1858  0F35                     	;# 
  1859  0F36                     	;# 
  1860  0F37                     	;# 
  1861  0FE4                     	;# 
  1862  0FE5                     	;# 
  1863  0FE6                     	;# 
  1864  0FE7                     	;# 
  1865  0FE8                     	;# 
  1866  0FE9                     	;# 
  1867  0FEA                     	;# 
  1868  0FEB                     	;# 
  1869  0FED                     	;# 
  1870  0FEE                     	;# 
  1871  0FEF                     	;# 
  1872  0000                     	;# 
  1873  0001                     	;# 
  1874  0002                     	;# 
  1875  0003                     	;# 
  1876  0004                     	;# 
  1877  0005                     	;# 
  1878  0006                     	;# 
  1879  0007                     	;# 
  1880  0008                     	;# 
  1881  0009                     	;# 
  1882  000A                     	;# 
  1883  000B                     	;# 
  1884  000C                     	;# 
  1885  000D                     	;# 
  1886  000E                     	;# 
  1887  0010                     	;# 
  1888  0011                     	;# 
  1889  0012                     	;# 
  1890  0013                     	;# 
  1891  0014                     	;# 
  1892  0015                     	;# 
  1893  0015                     	;# 
  1894  0016                     	;# 
  1895  0016                     	;# 
  1896  0017                     	;# 
  1897  0018                     	;# 
  1898  0019                     	;# 
  1899  0019                     	;# 
  1900  001A                     	;# 
  1901  001B                     	;# 
  1902  001C                     	;# 
  1903  001D                     	;# 
  1904  001E                     	;# 
  1905  001F                     	;# 
  1906  008C                     	;# 
  1907  008D                     	;# 
  1908  008E                     	;# 
  1909  0090                     	;# 
  1910  0091                     	;# 
  1911  0092                     	;# 
  1912  0093                     	;# 
  1913  0094                     	;# 
  1914  0097                     	;# 
  1915  009B                     	;# 
  1916  009B                     	;# 
  1917  009C                     	;# 
  1918  009D                     	;# 
  1919  009E                     	;# 
  1920  009F                     	;# 
  1921  010C                     	;# 
  1922  010D                     	;# 
  1923  010E                     	;# 
  1924  0111                     	;# 
  1925  0112                     	;# 
  1926  0113                     	;# 
  1927  0114                     	;# 
  1928  0115                     	;# 
  1929  0116                     	;# 
  1930  0117                     	;# 
  1931  0118                     	;# 
  1932  0119                     	;# 
  1933  018C                     	;# 
  1934  018D                     	;# 
  1935  018E                     	;# 
  1936  0197                     	;# 
  1937  0199                     	;# 
  1938  0199                     	;# 
  1939  0199                     	;# 
  1940  019A                     	;# 
  1941  019A                     	;# 
  1942  019A                     	;# 
  1943  019B                     	;# 
  1944  019B                     	;# 
  1945  019B                     	;# 
  1946  019B                     	;# 
  1947  019B                     	;# 
  1948  019C                     	;# 
  1949  019C                     	;# 
  1950  019C                     	;# 
  1951  019D                     	;# 
  1952  019D                     	;# 
  1953  019D                     	;# 
  1954  019E                     	;# 
  1955  019E                     	;# 
  1956  019E                     	;# 
  1957  019F                     	;# 
  1958  019F                     	;# 
  1959  019F                     	;# 
  1960  019F                     	;# 
  1961  019F                     	;# 
  1962  020C                     	;# 
  1963  020D                     	;# 
  1964  020E                     	;# 
  1965  0211                     	;# 
  1966  0211                     	;# 
  1967  0212                     	;# 
  1968  0212                     	;# 
  1969  0213                     	;# 
  1970  0213                     	;# 
  1971  0214                     	;# 
  1972  0214                     	;# 
  1973  0215                     	;# 
  1974  0215                     	;# 
  1975  0215                     	;# 
  1976  0215                     	;# 
  1977  0216                     	;# 
  1978  0216                     	;# 
  1979  0217                     	;# 
  1980  0217                     	;# 
  1981  0219                     	;# 
  1982  021A                     	;# 
  1983  021B                     	;# 
  1984  021C                     	;# 
  1985  021D                     	;# 
  1986  021D                     	;# 
  1987  021E                     	;# 
  1988  021F                     	;# 
  1989  028C                     	;# 
  1990  028D                     	;# 
  1991  028E                     	;# 
  1992  0291                     	;# 
  1993  0291                     	;# 
  1994  0292                     	;# 
  1995  0293                     	;# 
  1996  0294                     	;# 
  1997  0295                     	;# 
  1998  0295                     	;# 
  1999  0296                     	;# 
  2000  0297                     	;# 
  2001  0298                     	;# 
  2002  029F                     	;# 
  2003  030C                     	;# 
  2004  030D                     	;# 
  2005  030E                     	;# 
  2006  0311                     	;# 
  2007  0311                     	;# 
  2008  0312                     	;# 
  2009  0313                     	;# 
  2010  0314                     	;# 
  2011  0315                     	;# 
  2012  0315                     	;# 
  2013  0316                     	;# 
  2014  0317                     	;# 
  2015  0318                     	;# 
  2016  038C                     	;# 
  2017  038D                     	;# 
  2018  038E                     	;# 
  2019  0391                     	;# 
  2020  0392                     	;# 
  2021  0393                     	;# 
  2022  0394                     	;# 
  2023  0395                     	;# 
  2024  0396                     	;# 
  2025  0397                     	;# 
  2026  0398                     	;# 
  2027  0399                     	;# 
  2028  039A                     	;# 
  2029  039C                     	;# 
  2030  039D                     	;# 
  2031  039E                     	;# 
  2032  039F                     	;# 
  2033  0411                     	;# 
  2034  0411                     	;# 
  2035  0412                     	;# 
  2036  0413                     	;# 
  2037  0414                     	;# 
  2038  0415                     	;# 
  2039  0416                     	;# 
  2040  0417                     	;# 
  2041  0418                     	;# 
  2042  0418                     	;# 
  2043  0419                     	;# 
  2044  041A                     	;# 
  2045  041B                     	;# 
  2046  041C                     	;# 
  2047  041D                     	;# 
  2048  041E                     	;# 
  2049  041F                     	;# 
  2050  0498                     	;# 
  2051  0498                     	;# 
  2052  0499                     	;# 
  2053  049A                     	;# 
  2054  049B                     	;# 
  2055  049B                     	;# 
  2056  049C                     	;# 
  2057  049D                     	;# 
  2058  049E                     	;# 
  2059  049F                     	;# 
  2060  0617                     	;# 
  2061  0618                     	;# 
  2062  0619                     	;# 
  2063  0619                     	;# 
  2064  061A                     	;# 
  2065  061B                     	;# 
  2066  061C                     	;# 
  2067  061C                     	;# 
  2068  061F                     	;# 
  2069  0691                     	;# 
  2070  0692                     	;# 
  2071  0693                     	;# 
  2072  0694                     	;# 
  2073  0695                     	;# 
  2074  0696                     	;# 
  2075  0697                     	;# 
  2076  0698                     	;# 
  2077  0699                     	;# 
  2078  0711                     	;# 
  2079  0712                     	;# 
  2080  0713                     	;# 
  2081  0714                     	;# 
  2082  0715                     	;# 
  2083  0716                     	;# 
  2084  0717                     	;# 
  2085  0718                     	;# 
  2086  0719                     	;# 
  2087  0891                     	;# 
  2088  0891                     	;# 
  2089  0891                     	;# 
  2090  0891                     	;# 
  2091  0891                     	;# 
  2092  0891                     	;# 
  2093  0892                     	;# 
  2094  0892                     	;# 
  2095  0892                     	;# 
  2096  0893                     	;# 
  2097  0893                     	;# 
  2098  0893                     	;# 
  2099  0893                     	;# 
  2100  0893                     	;# 
  2101  0893                     	;# 
  2102  0894                     	;# 
  2103  0894                     	;# 
  2104  0894                     	;# 
  2105  0895                     	;# 
  2106  0895                     	;# 
  2107  0895                     	;# 
  2108  0896                     	;# 
  2109  0896                     	;# 
  2110  0896                     	;# 
  2111  089B                     	;# 
  2112  0911                     	;# 
  2113  0912                     	;# 
  2114  0913                     	;# 
  2115  0914                     	;# 
  2116  0915                     	;# 
  2117  0916                     	;# 
  2118  0918                     	;# 
  2119  0919                     	;# 
  2120  091A                     	;# 
  2121  091B                     	;# 
  2122  091C                     	;# 
  2123  091D                     	;# 
  2124  091E                     	;# 
  2125  091F                     	;# 
  2126  0E0F                     	;# 
  2127  0E10                     	;# 
  2128  0E11                     	;# 
  2129  0E12                     	;# 
  2130  0E13                     	;# 
  2131  0E14                     	;# 
  2132  0E15                     	;# 
  2133  0E16                     	;# 
  2134  0E17                     	;# 
  2135  0E18                     	;# 
  2136  0E19                     	;# 
  2137  0E1A                     	;# 
  2138  0E1B                     	;# 
  2139  0E1C                     	;# 
  2140  0E1D                     	;# 
  2141  0E1E                     	;# 
  2142  0E1F                     	;# 
  2143  0E20                     	;# 
  2144  0E21                     	;# 
  2145  0E22                     	;# 
  2146  0E24                     	;# 
  2147  0E25                     	;# 
  2148  0E28                     	;# 
  2149  0E29                     	;# 
  2150  0E2A                     	;# 
  2151  0E2B                     	;# 
  2152  0E2C                     	;# 
  2153  0E2D                     	;# 
  2154  0E2E                     	;# 
  2155  0E2F                     	;# 
  2156  0E90                     	;# 
  2157  0E91                     	;# 
  2158  0E92                     	;# 
  2159  0E94                     	;# 
  2160  0E95                     	;# 
  2161  0E9C                     	;# 
  2162  0E9D                     	;# 
  2163  0E9E                     	;# 
  2164  0E9F                     	;# 
  2165  0EA0                     	;# 
  2166  0EA1                     	;# 
  2167  0EA2                     	;# 
  2168  0EA3                     	;# 
  2169  0EA4                     	;# 
  2170  0EA5                     	;# 
  2171  0EA6                     	;# 
  2172  0EA7                     	;# 
  2173  0F0F                     	;# 
  2174  0F10                     	;# 
  2175  0F11                     	;# 
  2176  0F12                     	;# 
  2177  0F13                     	;# 
  2178  0F14                     	;# 
  2179  0F15                     	;# 
  2180  0F16                     	;# 
  2181  0F17                     	;# 
  2182  0F18                     	;# 
  2183  0F19                     	;# 
  2184  0F1A                     	;# 
  2185  0F1B                     	;# 
  2186  0F1C                     	;# 
  2187  0F1D                     	;# 
  2188  0F1E                     	;# 
  2189  0F1F                     	;# 
  2190  0F20                     	;# 
  2191  0F21                     	;# 
  2192  0F22                     	;# 
  2193  0F23                     	;# 
  2194  0F24                     	;# 
  2195  0F25                     	;# 
  2196  0F26                     	;# 
  2197  0F27                     	;# 
  2198  0F28                     	;# 
  2199  0F29                     	;# 
  2200  0F2A                     	;# 
  2201  0F2B                     	;# 
  2202  0F2C                     	;# 
  2203  0F2D                     	;# 
  2204  0F2E                     	;# 
  2205  0F2F                     	;# 
  2206  0F30                     	;# 
  2207  0F31                     	;# 
  2208  0F32                     	;# 
  2209  0F33                     	;# 
  2210  0F34                     	;# 
  2211  0F35                     	;# 
  2212  0F36                     	;# 
  2213  0F37                     	;# 
  2214  0FE4                     	;# 
  2215  0FE5                     	;# 
  2216  0FE6                     	;# 
  2217  0FE7                     	;# 
  2218  0FE8                     	;# 
  2219  0FE9                     	;# 
  2220  0FEA                     	;# 
  2221  0FEB                     	;# 
  2222  0FED                     	;# 
  2223  0FEE                     	;# 
  2224  0FEF                     	;# 
  2225                           
  2226                           	psect	stringtext1
  2227  026C                     __pstringtext1:	
  2228  026C                     _fsmStateTable:	
  2229  026C  34EB               	retlw	low _I2C1_DO_IDLE
  2230  026D  3403               	retlw	high _I2C1_DO_IDLE
  2231  026E  348C               	retlw	low _I2C1_DO_SEND_ADR_READ
  2232  026F  3403               	retlw	high _I2C1_DO_SEND_ADR_READ
  2233  0270  349D               	retlw	low _I2C1_DO_SEND_ADR_WRITE
  2234  0271  3403               	retlw	high _I2C1_DO_SEND_ADR_WRITE
  2235  0272  3435               	retlw	low _I2C1_DO_TX
  2236  0273  3400               	retlw	high _I2C1_DO_TX
  2237  0274  348A               	retlw	low _I2C1_DO_RX
  2238  0275  3400               	retlw	high _I2C1_DO_RX
  2239  0276  34A5               	retlw	low _I2C1_DO_RCEN
  2240  0277  3403               	retlw	high _I2C1_DO_RCEN
  2241  0278  3449               	retlw	low _I2C1_DO_TX_EMPTY
  2242  0279  3401               	retlw	high _I2C1_DO_TX_EMPTY
  2243  027A  34E6               	retlw	low _I2C1_DO_SEND_RESTART_READ
  2244  027B  3403               	retlw	high _I2C1_DO_SEND_RESTART_READ
  2245  027C  34E1               	retlw	low _I2C1_DO_SEND_RESTART_WRITE
  2246  027D  3403               	retlw	high _I2C1_DO_SEND_RESTART_WRITE
  2247  027E  34DC               	retlw	low _I2C1_DO_SEND_RESTART
  2248  027F  3403               	retlw	high _I2C1_DO_SEND_RESTART
  2249  0280  34D7               	retlw	low _I2C1_DO_SEND_STOP
  2250  0281  3403               	retlw	high _I2C1_DO_SEND_STOP
  2251  0282  34D2               	retlw	low _I2C1_DO_RX_ACK
  2252  0283  3403               	retlw	high _I2C1_DO_RX_ACK
  2253  0284  34CD               	retlw	low _I2C1_DO_RX_NACK_STOP
  2254  0285  3403               	retlw	high _I2C1_DO_RX_NACK_STOP
  2255  0286  34C8               	retlw	low _I2C1_DO_RX_NACK_RESTART
  2256  0287  3403               	retlw	high _I2C1_DO_RX_NACK_RESTART
  2257  0288  34C3               	retlw	low _I2C1_DO_RESET
  2258  0289  3403               	retlw	high _I2C1_DO_RESET
  2259  028A  3478               	retlw	low _I2C1_DO_ADDRESS_NACK
  2260  028B  3401               	retlw	high _I2C1_DO_ADDRESS_NACK
  2261  028C                     __end_of_fsmStateTable:	
  2262  000B                     _INTCONbits	set	11
  2263  0011                     _PIR1bits	set	17
  2264  008E                     _TRISC	set	142
  2265  008D                     _TRISB	set	141
  2266  008C                     _TRISA	set	140
  2267  0097                     _WDTCON	set	151
  2268  0091                     _PIE1bits	set	145
  2269  010E                     _LATC	set	270
  2270  010D                     _LATB	set	269
  2271  010C                     _LATA	set	268
  2272  018C                     _ANSELA	set	396
  2273  018D                     _ANSELB	set	397
  2274  018E                     _ANSELC	set	398
  2275  020E                     _WPUC	set	526
  2276  020C                     _WPUA	set	524
  2277  020D                     _WPUB	set	525
  2278  0214                     _SSP1STATbits	set	532
  2279  0216                     _SSP1CON2bits	set	534
  2280  0211                     _SSP1BUF	set	529
  2281  0215                     _SSP1CON1bits	set	533
  2282  0212                     _SSP1ADD	set	530
  2283  0216                     _SSP1CON2	set	534
  2284  0215                     _SSP1CON1	set	533
  2285  0214                     _SSP1STAT	set	532
  2286  028E                     _ODCONC	set	654
  2287  028D                     _ODCONB	set	653
  2288  028C                     _ODCONA	set	652
  2289  030E                     _SLRCONC	set	782
  2290  030D                     _SLRCONB	set	781
  2291  030C                     _SLRCONA	set	780
  2292  038E                     _INLVLC	set	910
  2293  038D                     _INLVLB	set	909
  2294  038C                     _INLVLA	set	908
  2295  0916                     _PMD5	set	2326
  2296  0915                     _PMD4	set	2325
  2297  0914                     _PMD3	set	2324
  2298  0913                     _PMD2	set	2323
  2299  0912                     _PMD1	set	2322
  2300  0911                     _PMD0	set	2321
  2301  091E                     _OSCTUNE	set	2334
  2302  091F                     _OSCFRQ	set	2335
  2303  091D                     _OSCEN	set	2333
  2304  091B                     _OSCCON3	set	2331
  2305  0919                     _OSCCON1	set	2329
  2306  0E21                     _SSP1DATPPS	set	3617
  2307  0E20                     _SSP1CLKPPS	set	3616
  2308  0E95                     _RA5PPS	set	3733
  2309  0E94                     _RA4PPS	set	3732
  2310                           
  2311                           ; #config settings
  2312  0000                     
  2313                           	psect	cinit
  2314  0029                     start_initialization:	
  2315  0029                     __initialization:	
  2316                           
  2317                           ; Clear objects allocated to BANK0
  2318  0029  3020               	movlw	low __pbssBANK0
  2319  002A  0084               	movwf	4
  2320  002B  3000               	movlw	high __pbssBANK0
  2321  002C  0085               	movwf	5
  2322  002D  3020               	movlw	32
  2323  002E  3183  23AC  3180   	fcall	clear_ram0
  2324  0031                     end_of_initialization:	
  2325                           ;End of C runtime variable initialization code
  2326                           
  2327  0031                     __end_of__initialization:	
  2328  0031  107E               	bcf	int$flags,0	;clear compiler interrupt flag (level 1)
  2329  0032  0020               	movlb	0
  2330  0033  3181  29F8         	ljmp	_main	;jump to C main() function
  2331                           
  2332                           	psect	bssBANK0
  2333  0020                     __pbssBANK0:	
  2334  0020                     _I2C1_Status:	
  2335  0020                     	ds	29
  2336  003D                     _MSSP1_InterruptHandler:	
  2337  003D                     	ds	2
  2338  003F                     _I2C_TxBuffer:	
  2339  003F                     	ds	1
  2340                           
  2341                           	psect	clrtext
  2342  03AC                     clear_ram0:	
  2343                           ;	Called with FSR0 containing the base address, and
  2344                           ;	WREG with the size to clear
  2345                           
  2346  03AC  0064               	clrwdt	;clear the watchdog before getting into this loop
  2347  03AD                     clrloop0:	
  2348  03AD  0180               	clrf	0	;clear RAM location pointed to by FSR
  2349  03AE  3101               	addfsr 0,1
  2350  03AF  0B89               	decfsz	9,f	;Have we reached the end of clearing yet?
  2351  03B0  2BAD               	goto	clrloop0	;have we reached the end yet?
  2352  03B1  3400               	retlw	0	;all done for this memory range, return
  2353                           
  2354                           	psect	cstackCOMMON
  2355  0070                     __pcstackCOMMON:	
  2356  0070                     ?_I2C1_Open:	
  2357  0070                     ?_I2C1_MasterWrite:	
  2358                           ; 1 bytes @ 0x0
  2359                           
  2360  0070                     ?_I2C1_Close:	
  2361                           ; 1 bytes @ 0x0
  2362                           
  2363  0070                     ?_I2C1_DO_IDLE:	
  2364                           ; 1 bytes @ 0x0
  2365                           
  2366  0070                     ??_I2C1_DO_IDLE:	
  2367                           ; 1 bytes @ 0x0
  2368                           
  2369  0070                     ?_I2C1_DO_SEND_ADR_READ:	
  2370                           ; 1 bytes @ 0x0
  2371                           
  2372  0070                     ??_I2C1_DO_SEND_ADR_READ:	
  2373                           ; 1 bytes @ 0x0
  2374                           
  2375  0070                     ?_I2C1_DO_SEND_ADR_WRITE:	
  2376                           ; 1 bytes @ 0x0
  2377                           
  2378  0070                     ?_I2C1_DO_TX:	
  2379                           ; 1 bytes @ 0x0
  2380                           
  2381  0070                     ?_I2C1_DO_RX:	
  2382                           ; 1 bytes @ 0x0
  2383                           
  2384  0070                     ?_I2C1_DO_RCEN:	
  2385                           ; 1 bytes @ 0x0
  2386                           
  2387  0070                     ??_I2C1_DO_RCEN:	
  2388                           ; 1 bytes @ 0x0
  2389                           
  2390  0070                     ?_I2C1_DO_TX_EMPTY:	
  2391                           ; 1 bytes @ 0x0
  2392                           
  2393  0070                     ?_I2C1_DO_SEND_RESTART_READ:	
  2394                           ; 1 bytes @ 0x0
  2395                           
  2396  0070                     ??_I2C1_DO_SEND_RESTART_READ:	
  2397                           ; 1 bytes @ 0x0
  2398                           
  2399  0070                     ?_I2C1_DO_SEND_RESTART_WRITE:	
  2400                           ; 1 bytes @ 0x0
  2401                           
  2402  0070                     ??_I2C1_DO_SEND_RESTART_WRITE:	
  2403                           ; 1 bytes @ 0x0
  2404                           
  2405  0070                     ?_I2C1_DO_SEND_RESTART:	
  2406                           ; 1 bytes @ 0x0
  2407                           
  2408  0070                     ??_I2C1_DO_SEND_RESTART:	
  2409                           ; 1 bytes @ 0x0
  2410                           
  2411  0070                     ?_I2C1_DO_SEND_STOP:	
  2412                           ; 1 bytes @ 0x0
  2413                           
  2414  0070                     ??_I2C1_DO_SEND_STOP:	
  2415                           ; 1 bytes @ 0x0
  2416                           
  2417  0070                     ?_I2C1_DO_RX_ACK:	
  2418                           ; 1 bytes @ 0x0
  2419                           
  2420  0070                     ??_I2C1_DO_RX_ACK:	
  2421                           ; 1 bytes @ 0x0
  2422                           
  2423  0070                     ?_I2C1_DO_RX_NACK_STOP:	
  2424                           ; 1 bytes @ 0x0
  2425                           
  2426  0070                     ??_I2C1_DO_RX_NACK_STOP:	
  2427                           ; 1 bytes @ 0x0
  2428                           
  2429  0070                     ?_I2C1_DO_RX_NACK_RESTART:	
  2430                           ; 1 bytes @ 0x0
  2431                           
  2432  0070                     ??_I2C1_DO_RX_NACK_RESTART:	
  2433                           ; 1 bytes @ 0x0
  2434                           
  2435  0070                     ?_I2C1_DO_RESET:	
  2436                           ; 1 bytes @ 0x0
  2437                           
  2438  0070                     ??_I2C1_DO_RESET:	
  2439                           ; 1 bytes @ 0x0
  2440                           
  2441  0070                     ?_I2C1_DO_ADDRESS_NACK:	
  2442                           ; 1 bytes @ 0x0
  2443                           
  2444  0070                     ?_I2C1_MasterIsr:	
  2445                           ; 1 bytes @ 0x0
  2446                           
  2447  0070                     ?_I2C1_MasterClearIrq:	
  2448                           ; 1 bytes @ 0x0
  2449                           
  2450  0070                     ?_I2C1_MasterOpen:	
  2451                           ; 1 bytes @ 0x0
  2452                           
  2453  0070                     ?_I2C1_MasterEnableIrq:	
  2454                           ; 1 bytes @ 0x0
  2455                           
  2456  0070                     ?_I2C1_MasterDisableIrq:	
  2457                           ; 1 bytes @ 0x0
  2458                           
  2459  0070                     ?_I2C1_MasterClose:	
  2460                           ; 1 bytes @ 0x0
  2461                           
  2462  0070                     ?_I2C1_MasterStart:	
  2463                           ; 1 bytes @ 0x0
  2464                           
  2465  0070                     ?_I2C1_MasterFsm:	
  2466                           ; 1 bytes @ 0x0
  2467                           
  2468  0070                     ?_I2C1_MasterIsNack:	
  2469                           ; 1 bytes @ 0x0
  2470                           
  2471  0070                     ??_I2C1_MasterIsNack:	
  2472                           ; 1 bytes @ 0x0
  2473                           
  2474  0070                     ?_I2C1_MasterSendTxData:	
  2475                           ; 1 bytes @ 0x0
  2476                           
  2477  0070                     ??_I2C1_MasterSendTxData:	
  2478                           ; 1 bytes @ 0x0
  2479                           
  2480  0070                     ?_I2C1_MasterGetRxData:	
  2481                           ; 1 bytes @ 0x0
  2482                           
  2483  0070                     ??_I2C1_MasterGetRxData:	
  2484                           ; 1 bytes @ 0x0
  2485                           
  2486  0070                     ?_I2C1_MasterSendAck:	
  2487                           ; 1 bytes @ 0x0
  2488                           
  2489  0070                     ??_I2C1_MasterSendAck:	
  2490                           ; 1 bytes @ 0x0
  2491                           
  2492  0070                     ?_I2C1_MasterStartRx:	
  2493                           ; 1 bytes @ 0x0
  2494                           
  2495  0070                     ??_I2C1_MasterStartRx:	
  2496                           ; 1 bytes @ 0x0
  2497                           
  2498  0070                     ?_I2C1_MasterSetIrq:	
  2499                           ; 1 bytes @ 0x0
  2500                           
  2501  0070                     ??_I2C1_MasterSetIrq:	
  2502                           ; 1 bytes @ 0x0
  2503                           
  2504  0070                     ?_I2C1_MasterEnableRestart:	
  2505                           ; 1 bytes @ 0x0
  2506                           
  2507  0070                     ??_I2C1_MasterEnableRestart:	
  2508                           ; 1 bytes @ 0x0
  2509                           
  2510  0070                     ?_I2C1_MasterStop:	
  2511                           ; 1 bytes @ 0x0
  2512                           
  2513  0070                     ??_I2C1_MasterStop:	
  2514                           ; 1 bytes @ 0x0
  2515                           
  2516  0070                     ?_I2C1_MasterSendNack:	
  2517                           ; 1 bytes @ 0x0
  2518                           
  2519  0070                     ??_I2C1_MasterSendNack:	
  2520                           ; 1 bytes @ 0x0
  2521                           
  2522  0070                     ?_PMD_Initialize:	
  2523                           ; 1 bytes @ 0x0
  2524                           
  2525  0070                     ?_PIN_MANAGER_Initialize:	
  2526                           ; 1 bytes @ 0x0
  2527                           
  2528  0070                     ?_OSCILLATOR_Initialize:	
  2529                           ; 1 bytes @ 0x0
  2530                           
  2531  0070                     ?_WDT_Initialize:	
  2532                           ; 1 bytes @ 0x0
  2533                           
  2534  0070                     ?_I2C1_Initialize:	
  2535                           ; 1 bytes @ 0x0
  2536                           
  2537  0070                     ?_I2C1_MasterOperation:	
  2538                           ; 1 bytes @ 0x0
  2539                           
  2540  0070                     ?_SYSTEM_Initialize:	
  2541                           ; 1 bytes @ 0x0
  2542                           
  2543  0070                     ?_main:	
  2544                           ; 1 bytes @ 0x0
  2545                           
  2546  0070                     ?_INTERRUPT_InterruptManager:	
  2547                           ; 1 bytes @ 0x0
  2548                           
  2549  0070                     ?i1_I2C1_SetBuffer:	
  2550                           ; 1 bytes @ 0x0
  2551                           
  2552  0070                     ?i1_I2C1_SetCallback:	
  2553                           ; 1 bytes @ 0x0
  2554                           
  2555  0070                     ?i1_I2C1_MasterClearIrq:	
  2556                           ; 1 bytes @ 0x0
  2557                           
  2558  0070                     ??i1_I2C1_MasterClearIrq:	
  2559                           ; 1 bytes @ 0x0
  2560                           
  2561  0070                     I2C1_MasterSendTxData@data:	
  2562                           ; 1 bytes @ 0x0
  2563                           
  2564  0070                     i1I2C1_SetBuffer@bufferSize:	
  2565                           ; 1 bytes @ 0x0
  2566                           
  2567  0070                     i1I2C1_SetCallback@cb:	
  2568                           ; 2 bytes @ 0x0
  2569                           
  2570                           
  2571                           ; 2 bytes @ 0x0
  2572  0070                     	ds	1
  2573  0071                     ??_I2C1_DO_SEND_ADR_WRITE:	
  2574                           
  2575                           ; 1 bytes @ 0x1
  2576  0071                     	ds	1
  2577  0072                     ??i1_I2C1_SetBuffer:	
  2578  0072                     i1I2C1_SetCallback@ptr:	
  2579                           ; 1 bytes @ 0x2
  2580                           
  2581                           
  2582                           ; 1 bytes @ 0x2
  2583  0072                     	ds	1
  2584  0073                     ??i1_I2C1_SetCallback:	
  2585  0073                     i1I2C1_SetBuffer@buffer:	
  2586                           ; 1 bytes @ 0x3
  2587                           
  2588                           
  2589                           ; 1 bytes @ 0x3
  2590  0073                     	ds	1
  2591  0074                     i1I2C1_SetCallback@idx:	
  2592                           
  2593                           ; 1 bytes @ 0x4
  2594  0074                     	ds	1
  2595  0075                     ?_I2C1_SetDataCompleteCallback:	
  2596  0075                     I2C1_SetDataCompleteCallback@cb:	
  2597                           ; 1 bytes @ 0x5
  2598                           
  2599                           
  2600                           ; 2 bytes @ 0x5
  2601  0075                     	ds	2
  2602  0077                     I2C1_SetDataCompleteCallback@ptr:	
  2603                           
  2604                           ; 1 bytes @ 0x7
  2605  0077                     	ds	1
  2606  0078                     ??_I2C1_SetDataCompleteCallback:	
  2607                           
  2608                           ; 1 bytes @ 0x8
  2609  0078                     	ds	1
  2610  0079                     ?_rd1RegCompleteHandler:	
  2611  0079                     ?_rd2RegCompleteHandler:	
  2612                           ; 1 bytes @ 0x9
  2613                           
  2614  0079                     ?_wr1RegCompleteHandler:	
  2615                           ; 1 bytes @ 0x9
  2616                           
  2617  0079                     ?_wr2RegCompleteHandler:	
  2618                           ; 1 bytes @ 0x9
  2619                           
  2620  0079                     ?_rdBlkRegCompleteHandler:	
  2621                           ; 1 bytes @ 0x9
  2622                           
  2623  0079                     ?_I2C1_CallbackReturnStop:	
  2624                           ; 1 bytes @ 0x9
  2625                           
  2626  0079                     ?_I2C1_CallbackReturnReset:	
  2627                           ; 1 bytes @ 0x9
  2628                           
  2629  0079                     rd1RegCompleteHandler@ptr:	
  2630                           ; 1 bytes @ 0x9
  2631                           
  2632  0079                     rd2RegCompleteHandler@ptr:	
  2633                           ; 1 bytes @ 0x9
  2634                           
  2635  0079                     wr1RegCompleteHandler@ptr:	
  2636                           ; 1 bytes @ 0x9
  2637                           
  2638  0079                     wr2RegCompleteHandler@ptr:	
  2639                           ; 1 bytes @ 0x9
  2640                           
  2641  0079                     rdBlkRegCompleteHandler@ptr:	
  2642                           ; 1 bytes @ 0x9
  2643                           
  2644  0079                     I2C1_CallbackReturnStop@funPtr:	
  2645                           ; 1 bytes @ 0x9
  2646                           
  2647  0079                     I2C1_CallbackReturnReset@funPtr:	
  2648                           ; 1 bytes @ 0x9
  2649                           
  2650                           
  2651                           ; 1 bytes @ 0x9
  2652  0079                     	ds	1
  2653  007A                     ??_rd1RegCompleteHandler:	
  2654  007A                     ??_rd2RegCompleteHandler:	
  2655                           ; 1 bytes @ 0xA
  2656                           
  2657  007A                     ??_wr1RegCompleteHandler:	
  2658                           ; 1 bytes @ 0xA
  2659                           
  2660  007A                     ??_wr2RegCompleteHandler:	
  2661                           ; 1 bytes @ 0xA
  2662                           
  2663  007A                     ??_rdBlkRegCompleteHandler:	
  2664                           ; 1 bytes @ 0xA
  2665                           
  2666  007A                     ??_I2C1_DO_TX:	
  2667                           ; 1 bytes @ 0xA
  2668                           
  2669  007A                     ??_I2C1_DO_RX:	
  2670                           ; 1 bytes @ 0xA
  2671                           
  2672  007A                     ??_I2C1_DO_TX_EMPTY:	
  2673                           ; 1 bytes @ 0xA
  2674                           
  2675  007A                     ??_I2C1_DO_ADDRESS_NACK:	
  2676                           ; 1 bytes @ 0xA
  2677                           
  2678  007A                     ??_I2C1_CallbackReturnStop:	
  2679                           ; 1 bytes @ 0xA
  2680                           
  2681  007A                     ??_I2C1_CallbackReturnReset:	
  2682                           ; 1 bytes @ 0xA
  2683                           
  2684                           
  2685                           ; 1 bytes @ 0xA
  2686  007A                     	ds	3
  2687  007D                     ??_I2C1_MasterIsr:	
  2688  007D                     ??_INTERRUPT_InterruptManager:	
  2689                           ; 1 bytes @ 0xD
  2690                           
  2691                           
  2692                           	psect	cstackBANK0
  2693  0040                     __pcstackBANK0:	
  2694                           ; 1 bytes @ 0xD
  2695                           
  2696  0040                     ??_I2C1_MasterFsm:	
  2697                           
  2698                           ; 1 bytes @ 0x0
  2699  0040                     	ds	3
  2700  0043                     ?_I2C1_SetBuffer:	
  2701  0043                     ??_I2C1_Close:	
  2702                           ; 1 bytes @ 0x3
  2703                           
  2704  0043                     ?_I2C1_SetInterruptHandler:	
  2705                           ; 1 bytes @ 0x3
  2706                           
  2707  0043                     ??_I2C1_MasterClearIrq:	
  2708                           ; 1 bytes @ 0x3
  2709                           
  2710  0043                     ??_I2C1_MasterOpen:	
  2711                           ; 1 bytes @ 0x3
  2712                           
  2713  0043                     ??_I2C1_MasterEnableIrq:	
  2714                           ; 1 bytes @ 0x3
  2715                           
  2716  0043                     ??_I2C1_MasterDisableIrq:	
  2717                           ; 1 bytes @ 0x3
  2718                           
  2719  0043                     ??_I2C1_MasterClose:	
  2720                           ; 1 bytes @ 0x3
  2721                           
  2722  0043                     ??_I2C1_MasterStart:	
  2723                           ; 1 bytes @ 0x3
  2724                           
  2725  0043                     ?_I2C1_SetCallback:	
  2726                           ; 1 bytes @ 0x3
  2727                           
  2728  0043                     ??_PMD_Initialize:	
  2729                           ; 1 bytes @ 0x3
  2730                           
  2731  0043                     ??_PIN_MANAGER_Initialize:	
  2732                           ; 1 bytes @ 0x3
  2733                           
  2734  0043                     ??_OSCILLATOR_Initialize:	
  2735                           ; 1 bytes @ 0x3
  2736                           
  2737  0043                     ??_WDT_Initialize:	
  2738                           ; 1 bytes @ 0x3
  2739                           
  2740  0043                     ??_I2C1_Initialize:	
  2741                           ; 1 bytes @ 0x3
  2742                           
  2743  0043                     ??_I2C1_MasterOperation:	
  2744                           ; 1 bytes @ 0x3
  2745                           
  2746  0043                     ??_SYSTEM_Initialize:	
  2747                           ; 1 bytes @ 0x3
  2748                           
  2749  0043                     I2C1_SetBuffer@bufferSize:	
  2750                           ; 1 bytes @ 0x3
  2751                           
  2752  0043                     I2C1_SetInterruptHandler@InterruptHandler:	
  2753                           ; 2 bytes @ 0x3
  2754                           
  2755  0043                     I2C1_SetCallback@cb:	
  2756                           ; 2 bytes @ 0x3
  2757                           
  2758                           
  2759                           ; 2 bytes @ 0x3
  2760  0043                     	ds	1
  2761  0044                     I2C1_Close@returnValue:	
  2762  0044                     I2C1_MasterOperation@read:	
  2763                           ; 1 bytes @ 0x4
  2764                           
  2765                           
  2766                           ; 1 bytes @ 0x4
  2767  0044                     	ds	1
  2768  0045                     ??_I2C1_Open:	
  2769  0045                     ??_I2C1_SetBuffer:	
  2770                           ; 1 bytes @ 0x5
  2771                           
  2772  0045                     ??_I2C1_SetInterruptHandler:	
  2773                           ; 1 bytes @ 0x5
  2774                           
  2775  0045                     I2C1_MasterOperation@returnValue:	
  2776                           ; 1 bytes @ 0x5
  2777                           
  2778  0045                     I2C1_SetCallback@ptr:	
  2779                           ; 1 bytes @ 0x5
  2780                           
  2781                           
  2782                           ; 1 bytes @ 0x5
  2783  0045                     	ds	1
  2784  0046                     ??_I2C1_MasterWrite:	
  2785  0046                     ??_I2C1_SetCallback:	
  2786                           ; 1 bytes @ 0x6
  2787                           
  2788  0046                     I2C1_Open@address:	
  2789                           ; 1 bytes @ 0x6
  2790                           
  2791  0046                     I2C1_SetBuffer@buffer:	
  2792                           ; 1 bytes @ 0x6
  2793                           
  2794                           
  2795                           ; 1 bytes @ 0x6
  2796  0046                     	ds	1
  2797  0047                     I2C1_Open@returnValue:	
  2798  0047                     I2C1_SetCallback@idx:	
  2799                           ; 1 bytes @ 0x7
  2800                           
  2801                           
  2802                           ; 1 bytes @ 0x7
  2803  0047                     	ds	1
  2804  0048                     ?_I2C1_SetAddressNackCallback:	
  2805  0048                     I2C1_SetAddressNackCallback@cb:	
  2806                           ; 1 bytes @ 0x8
  2807                           
  2808                           
  2809                           ; 2 bytes @ 0x8
  2810  0048                     	ds	2
  2811  004A                     I2C1_SetAddressNackCallback@ptr:	
  2812                           
  2813                           ; 1 bytes @ 0xA
  2814  004A                     	ds	1
  2815  004B                     ??_I2C1_SetAddressNackCallback:	
  2816                           
  2817                           ; 1 bytes @ 0xB
  2818  004B                     	ds	1
  2819  004C                     ?_I2C1_WriteNBytes:	
  2820  004C                     I2C1_WriteNBytes@data:	
  2821                           ; 1 bytes @ 0xC
  2822                           
  2823                           
  2824                           ; 1 bytes @ 0xC
  2825  004C                     	ds	1
  2826  004D                     I2C1_WriteNBytes@len:	
  2827                           
  2828                           ; 2 bytes @ 0xD
  2829  004D                     	ds	2
  2830  004F                     ??_I2C1_WriteNBytes:	
  2831  004F                     I2C1_WriteNBytes@address:	
  2832                           ; 1 bytes @ 0xF
  2833                           
  2834                           
  2835                           ; 1 bytes @ 0xF
  2836  004F                     	ds	1
  2837  0050                     ??_main:	
  2838                           
  2839                           ; 1 bytes @ 0x10
  2840  0050                     	ds	2
  2841                           
  2842                           	psect	maintext
  2843  01F8                     __pmaintext:	
  2844 ;;
  2845 ;;Main: autosize = 0, tempsize = 2, incstack = 0, save=0
  2846 ;;
  2847 ;; *************** function _main *****************
  2848 ;; Defined at:
  2849 ;;		line 52 in file "main.c"
  2850 ;; Parameters:    Size  Location     Type
  2851 ;;		None
  2852 ;; Auto vars:     Size  Location     Type
  2853 ;;		None
  2854 ;; Return value:  Size  Location     Type
  2855 ;;                  1    wreg      void 
  2856 ;; Registers used:
  2857 ;;		wreg, fsr1l, fsr1h, status,2, status,0, pclath, cstack
  2858 ;; Tracked objects:
  2859 ;;		On entry : B1F/0
  2860 ;;		On exit  : 0/0
  2861 ;;		Unchanged: 0/0
  2862 ;; Data sizes:     COMMON   BANK0   BANK1   BANK2   BANK3   BANK4   BANK5   BANK6   BANK7   BANK8   BANK9  BANK10  BANK1
      +1  BANK12  BANK13  BANK14  BANK15  BANK16  BANK17  BANK18  BANK19  BANK20  BANK21  BANK22  BANK23  BANK24  BANK25
  2863 ;;      Params:         0       0       0       0       0       0       0       0       0       0       0       0       
      +0       0       0       0       0       0       0       0       0       0       0       0       0       0       0
  2864 ;;      Locals:         0       0       0       0       0       0       0       0       0       0       0       0       
      +0       0       0       0       0       0       0       0       0       0       0       0       0       0       0
  2865 ;;      Temps:          0       2       0       0       0       0       0       0       0       0       0       0       
      +0       0       0       0       0       0       0       0       0       0       0       0       0       0       0
  2866 ;;      Totals:         0       2       0       0       0       0       0       0       0       0       0       0       
      +0       0       0       0       0       0       0       0       0       0       0       0       0       0       0
  2867 ;;Total ram usage:        2 bytes
  2868 ;; Hardware stack levels required when called:   11
  2869 ;; This function calls:
  2870 ;;		_I2C1_WriteNBytes
  2871 ;;		_SYSTEM_Initialize
  2872 ;; This function is called by:
  2873 ;;		Startup code after reset
  2874 ;; This function uses a non-reentrant model
  2875 ;;
  2876                           
  2877                           
  2878                           ;psect for function _main
  2879  01F8                     _main:	
  2880  01F8                     l2490:	
  2881                           ;incstack = 0
  2882                           ; Regs used in _main: [wreg+fsr1l+fsr1h+status,2+status,0+pclath+cstack]
  2883                           
  2884                           
  2885                           ;main.c: 55:     SYSTEM_Initialize();
  2886  01F8  3183  2320  3181   	fcall	_SYSTEM_Initialize
  2887  01FB                     l2492:	
  2888                           
  2889                           ;main.c: 61:     (INTCONbits.GIE = 1);
  2890  01FB  178B               	bsf	11,7	;volatile
  2891  01FC                     l2494:	
  2892                           
  2893                           ;main.c: 64:     (INTCONbits.PEIE = 1);
  2894  01FC  170B               	bsf	11,6	;volatile
  2895  01FD                     l2496:	
  2896                           
  2897                           ;main.c: 73:     {;main.c: 75:         I2C1_WriteNBytes(0x27, &I2C_TxBuffer, 1);
  2898  01FD  303F               	movlw	(low (_I2C_TxBuffer| 0))& (0+255)
  2899  01FE  0020               	movlb	0	; select bank0
  2900  01FF  00D0               	movwf	??_main
  2901  0200  0850               	movf	??_main,w
  2902  0201  00CC               	movwf	I2C1_WriteNBytes@data
  2903  0202  3001               	movlw	1
  2904  0203  00CD               	movwf	I2C1_WriteNBytes@len
  2905  0204  3000               	movlw	0
  2906  0205  00CE               	movwf	I2C1_WriteNBytes@len+1
  2907  0206  3027               	movlw	39
  2908  0207  3181  21CF  3181   	fcall	_I2C1_WriteNBytes
  2909  020A                     l2498:	
  2910                           
  2911                           ;main.c: 76:         I2C_TxBuffer++;
  2912  020A  3001               	movlw	1
  2913  020B  0020               	movlb	0	; select bank0
  2914  020C  00D0               	movwf	??_main
  2915  020D  0850               	movf	??_main,w
  2916  020E  07BF               	addwf	_I2C_TxBuffer,f
  2917  020F                     l2500:	
  2918                           
  2919                           ;main.c: 77:        _delay((unsigned long)((500)*(32000000/4000.0)));
  2920  020F  3015               	movlw	21
  2921  0210  0020               	movlb	0	; select bank0
  2922  0211  00D1               	movwf	??_main+1
  2923  0212  304B               	movlw	75
  2924  0213  00D0               	movwf	??_main
  2925  0214  30BE               	movlw	190
  2926  0215                     u707:	
  2927  0215  0B89               	decfsz	9,f
  2928  0216  2A15               	goto	u707
  2929  0217  0BD0               	decfsz	??_main,f
  2930  0218  2A15               	goto	u707
  2931  0219  0BD1               	decfsz	??_main+1,f
  2932  021A  2A15               	goto	u707
  2933  021B  0000               	nop
  2934  021C  29FD               	goto	l2496
  2935  021D  3180  2827         	ljmp	start
  2936  021F                     __end_of_main:	
  2937                           
  2938                           	psect	text1
  2939  0320                     __ptext1:	
  2940 ;; *************** function _SYSTEM_Initialize *****************
  2941 ;; Defined at:
  2942 ;;		line 50 in file "mcc_generated_files/mcc.c"
  2943 ;; Parameters:    Size  Location     Type
  2944 ;;		None
  2945 ;; Auto vars:     Size  Location     Type
  2946 ;;		None
  2947 ;; Return value:  Size  Location     Type
  2948 ;;                  1    wreg      void 
  2949 ;; Registers used:
  2950 ;;		wreg, status,2, status,0, pclath, cstack
  2951 ;; Tracked objects:
  2952 ;;		On entry : 0/0
  2953 ;;		On exit  : 0/0
  2954 ;;		Unchanged: 0/0
  2955 ;; Data sizes:     COMMON   BANK0   BANK1   BANK2   BANK3   BANK4   BANK5   BANK6   BANK7   BANK8   BANK9  BANK10  BANK1
      +1  BANK12  BANK13  BANK14  BANK15  BANK16  BANK17  BANK18  BANK19  BANK20  BANK21  BANK22  BANK23  BANK24  BANK25
  2956 ;;      Params:         0       0       0       0       0       0       0       0       0       0       0       0       
      +0       0       0       0       0       0       0       0       0       0       0       0       0       0       0
  2957 ;;      Locals:         0       0       0       0       0       0       0       0       0       0       0       0       
      +0       0       0       0       0       0       0       0       0       0       0       0       0       0       0
  2958 ;;      Temps:          0       0       0       0       0       0       0       0       0       0       0       0       
      +0       0       0       0       0       0       0       0       0       0       0       0       0       0       0
  2959 ;;      Totals:         0       0       0       0       0       0       0       0       0       0       0       0       
      +0       0       0       0       0       0       0       0       0       0       0       0       0       0       0
  2960 ;;Total ram usage:        0 bytes
  2961 ;; Hardware stack levels used:    1
  2962 ;; Hardware stack levels required when called:    8
  2963 ;; This function calls:
  2964 ;;		_I2C1_Initialize
  2965 ;;		_OSCILLATOR_Initialize
  2966 ;;		_PIN_MANAGER_Initialize
  2967 ;;		_PMD_Initialize
  2968 ;;		_WDT_Initialize
  2969 ;; This function is called by:
  2970 ;;		_main
  2971 ;; This function uses a non-reentrant model
  2972 ;;
  2973                           
  2974                           
  2975                           ;psect for function _SYSTEM_Initialize
  2976  0320                     _SYSTEM_Initialize:	
  2977  0320                     l2372:	
  2978                           ;incstack = 0
  2979                           ; Regs used in _SYSTEM_Initialize: [wreg+status,2+status,0+pclath+cstack]
  2980                           
  2981                           
  2982                           ;mcc_generated_files/mcc.c: 53:     PMD_Initialize();
  2983  0320  3183  2395  3183   	fcall	_PMD_Initialize
  2984  0323                     l2374:	
  2985                           
  2986                           ;mcc_generated_files/mcc.c: 54:     I2C1_Initialize();
  2987  0323  3183  2379  3183   	fcall	_I2C1_Initialize
  2988  0326                     l2376:	
  2989                           
  2990                           ;mcc_generated_files/mcc.c: 55:     PIN_MANAGER_Initialize();
  2991  0326  3181  2115  3183   	fcall	_PIN_MANAGER_Initialize
  2992  0329                     l2378:	
  2993                           
  2994                           ;mcc_generated_files/mcc.c: 56:     OSCILLATOR_Initialize();
  2995  0329  3183  2383  3183   	fcall	_OSCILLATOR_Initialize
  2996  032C                     l2380:	
  2997                           
  2998                           ;mcc_generated_files/mcc.c: 57:     WDT_Initialize();
  2999  032C  3183  23F5  3183   	fcall	_WDT_Initialize
  3000  032F                     l480:	
  3001  032F  0008               	return
  3002  0330                     __end_of_SYSTEM_Initialize:	
  3003                           
  3004                           	psect	text2
  3005  03F5                     __ptext2:	
  3006 ;; *************** function _WDT_Initialize *****************
  3007 ;; Defined at:
  3008 ;;		line 74 in file "mcc_generated_files/mcc.c"
  3009 ;; Parameters:    Size  Location     Type
  3010 ;;		None
  3011 ;; Auto vars:     Size  Location     Type
  3012 ;;		None
  3013 ;; Return value:  Size  Location     Type
  3014 ;;                  1    wreg      void 
  3015 ;; Registers used:
  3016 ;;		wreg
  3017 ;; Tracked objects:
  3018 ;;		On entry : 0/0
  3019 ;;		On exit  : 0/0
  3020 ;;		Unchanged: 0/0
  3021 ;; Data sizes:     COMMON   BANK0   BANK1   BANK2   BANK3   BANK4   BANK5   BANK6   BANK7   BANK8   BANK9  BANK10  BANK1
      +1  BANK12  BANK13  BANK14  BANK15  BANK16  BANK17  BANK18  BANK19  BANK20  BANK21  BANK22  BANK23  BANK24  BANK25
  3022 ;;      Params:         0       0       0       0       0       0       0       0       0       0       0       0       
      +0       0       0       0       0       0       0       0       0       0       0       0       0       0       0
  3023 ;;      Locals:         0       0       0       0       0       0       0       0       0       0       0       0       
      +0       0       0       0       0       0       0       0       0       0       0       0       0       0       0
  3024 ;;      Temps:          0       0       0       0       0       0       0       0       0       0       0       0       
      +0       0       0       0       0       0       0       0       0       0       0       0       0       0       0
  3025 ;;      Totals:         0       0       0       0       0       0       0       0       0       0       0       0       
      +0       0       0       0       0       0       0       0       0       0       0       0       0       0       0
  3026 ;;Total ram usage:        0 bytes
  3027 ;; Hardware stack levels used:    1
  3028 ;; Hardware stack levels required when called:    7
  3029 ;; This function calls:
  3030 ;;		Nothing
  3031 ;; This function is called by:
  3032 ;;		_SYSTEM_Initialize
  3033 ;; This function uses a non-reentrant model
  3034 ;;
  3035                           
  3036                           
  3037                           ;psect for function _WDT_Initialize
  3038  03F5                     _WDT_Initialize:	
  3039  03F5                     l2356:	
  3040                           ;incstack = 0
  3041                           ; Regs used in _WDT_Initialize: [wreg]
  3042                           
  3043                           
  3044                           ;mcc_generated_files/mcc.c: 77:     WDTCON = 0x16;
  3045  03F5  3016               	movlw	22
  3046  03F6  0021               	movlb	1	; select bank1
  3047  03F7  0097               	movwf	23	;volatile
  3048  03F8                     l486:	
  3049  03F8  0008               	return
  3050  03F9                     __end_of_WDT_Initialize:	
  3051                           
  3052                           	psect	text3
  3053  0395                     __ptext3:	
  3054 ;; *************** function _PMD_Initialize *****************
  3055 ;; Defined at:
  3056 ;;		line 80 in file "mcc_generated_files/mcc.c"
  3057 ;; Parameters:    Size  Location     Type
  3058 ;;		None
  3059 ;; Auto vars:     Size  Location     Type
  3060 ;;		None
  3061 ;; Return value:  Size  Location     Type
  3062 ;;                  1    wreg      void 
  3063 ;; Registers used:
  3064 ;;		status,2
  3065 ;; Tracked objects:
  3066 ;;		On entry : 0/0
  3067 ;;		On exit  : 0/0
  3068 ;;		Unchanged: 0/0
  3069 ;; Data sizes:     COMMON   BANK0   BANK1   BANK2   BANK3   BANK4   BANK5   BANK6   BANK7   BANK8   BANK9  BANK10  BANK1
      +1  BANK12  BANK13  BANK14  BANK15  BANK16  BANK17  BANK18  BANK19  BANK20  BANK21  BANK22  BANK23  BANK24  BANK25
  3070 ;;      Params:         0       0       0       0       0       0       0       0       0       0       0       0       
      +0       0       0       0       0       0       0       0       0       0       0       0       0       0       0
  3071 ;;      Locals:         0       0       0       0       0       0       0       0       0       0       0       0       
      +0       0       0       0       0       0       0       0       0       0       0       0       0       0       0
  3072 ;;      Temps:          0       0       0       0       0       0       0       0       0       0       0       0       
      +0       0       0       0       0       0       0       0       0       0       0       0       0       0       0
  3073 ;;      Totals:         0       0       0       0       0       0       0       0       0       0       0       0       
      +0       0       0       0       0       0       0       0       0       0       0       0       0       0       0
  3074 ;;Total ram usage:        0 bytes
  3075 ;; Hardware stack levels used:    1
  3076 ;; Hardware stack levels required when called:    7
  3077 ;; This function calls:
  3078 ;;		Nothing
  3079 ;; This function is called by:
  3080 ;;		_SYSTEM_Initialize
  3081 ;; This function uses a non-reentrant model
  3082 ;;
  3083                           
  3084                           
  3085                           ;psect for function _PMD_Initialize
  3086  0395                     _PMD_Initialize:	
  3087  0395                     l2312:	
  3088                           ;incstack = 0
  3089                           ; Regs used in _PMD_Initialize: [status,2]
  3090                           
  3091                           
  3092                           ;mcc_generated_files/mcc.c: 83:     PMD0 = 0x00;
  3093  0395  0032               	movlb	18	; select bank18
  3094  0396  0191               	clrf	17	;volatile
  3095                           
  3096                           ;mcc_generated_files/mcc.c: 85:     PMD1 = 0x00;
  3097  0397  0192               	clrf	18	;volatile
  3098                           
  3099                           ;mcc_generated_files/mcc.c: 87:     PMD2 = 0x00;
  3100  0398  0193               	clrf	19	;volatile
  3101                           
  3102                           ;mcc_generated_files/mcc.c: 89:     PMD3 = 0x00;
  3103  0399  0194               	clrf	20	;volatile
  3104                           
  3105                           ;mcc_generated_files/mcc.c: 91:     PMD4 = 0x00;
  3106  039A  0195               	clrf	21	;volatile
  3107                           
  3108                           ;mcc_generated_files/mcc.c: 93:     PMD5 = 0x00;
  3109  039B  0196               	clrf	22	;volatile
  3110  039C                     l489:	
  3111  039C  0008               	return
  3112  039D                     __end_of_PMD_Initialize:	
  3113                           
  3114                           	psect	text4
  3115  0115                     __ptext4:	
  3116 ;; *************** function _PIN_MANAGER_Initialize *****************
  3117 ;; Defined at:
  3118 ;;		line 55 in file "mcc_generated_files/pin_manager.c"
  3119 ;; Parameters:    Size  Location     Type
  3120 ;;		None
  3121 ;; Auto vars:     Size  Location     Type
  3122 ;;		None
  3123 ;; Return value:  Size  Location     Type
  3124 ;;                  1    wreg      void 
  3125 ;; Registers used:
  3126 ;;		wreg, status,2
  3127 ;; Tracked objects:
  3128 ;;		On entry : 0/0
  3129 ;;		On exit  : 0/0
  3130 ;;		Unchanged: 0/0
  3131 ;; Data sizes:     COMMON   BANK0   BANK1   BANK2   BANK3   BANK4   BANK5   BANK6   BANK7   BANK8   BANK9  BANK10  BANK1
      +1  BANK12  BANK13  BANK14  BANK15  BANK16  BANK17  BANK18  BANK19  BANK20  BANK21  BANK22  BANK23  BANK24  BANK25
  3132 ;;      Params:         0       0       0       0       0       0       0       0       0       0       0       0       
      +0       0       0       0       0       0       0       0       0       0       0       0       0       0       0
  3133 ;;      Locals:         0       0       0       0       0       0       0       0       0       0       0       0       
      +0       0       0       0       0       0       0       0       0       0       0       0       0       0       0
  3134 ;;      Temps:          0       0       0       0       0       0       0       0       0       0       0       0       
      +0       0       0       0       0       0       0       0       0       0       0       0       0       0       0
  3135 ;;      Totals:         0       0       0       0       0       0       0       0       0       0       0       0       
      +0       0       0       0       0       0       0       0       0       0       0       0       0       0       0
  3136 ;;Total ram usage:        0 bytes
  3137 ;; Hardware stack levels used:    1
  3138 ;; Hardware stack levels required when called:    7
  3139 ;; This function calls:
  3140 ;;		Nothing
  3141 ;; This function is called by:
  3142 ;;		_SYSTEM_Initialize
  3143 ;; This function uses a non-reentrant model
  3144 ;;
  3145                           
  3146                           
  3147                           ;psect for function _PIN_MANAGER_Initialize
  3148  0115                     _PIN_MANAGER_Initialize:	
  3149  0115                     l2314:	
  3150                           ;incstack = 0
  3151                           ; Regs used in _PIN_MANAGER_Initialize: [wreg+status,2]
  3152                           
  3153                           
  3154                           ;mcc_generated_files/pin_manager.c: 60:     LATA = 0x00;
  3155  0115  0022               	movlb	2	; select bank2
  3156  0116  018C               	clrf	12	;volatile
  3157                           
  3158                           ;mcc_generated_files/pin_manager.c: 61:     LATB = 0x00;
  3159  0117  018D               	clrf	13	;volatile
  3160                           
  3161                           ;mcc_generated_files/pin_manager.c: 62:     LATC = 0x00;
  3162  0118  018E               	clrf	14	;volatile
  3163  0119                     l2316:	
  3164                           
  3165                           ;mcc_generated_files/pin_manager.c: 67:     TRISA = 0x37;
  3166  0119  3037               	movlw	55
  3167  011A  0021               	movlb	1	; select bank1
  3168  011B  008C               	movwf	12	;volatile
  3169  011C                     l2318:	
  3170                           
  3171                           ;mcc_generated_files/pin_manager.c: 68:     TRISB = 0xF0;
  3172  011C  30F0               	movlw	240
  3173  011D  008D               	movwf	13	;volatile
  3174  011E                     l2320:	
  3175                           
  3176                           ;mcc_generated_files/pin_manager.c: 69:     TRISC = 0xFF;
  3177  011E  30FF               	movlw	255
  3178  011F  008E               	movwf	14	;volatile
  3179  0120                     l2322:	
  3180                           
  3181                           ;mcc_generated_files/pin_manager.c: 74:     ANSELC = 0xFF;
  3182  0120  30FF               	movlw	255
  3183  0121  0023               	movlb	3	; select bank3
  3184  0122  008E               	movwf	14	;volatile
  3185  0123                     l2324:	
  3186                           
  3187                           ;mcc_generated_files/pin_manager.c: 75:     ANSELB = 0xF0;
  3188  0123  30F0               	movlw	240
  3189  0124  008D               	movwf	13	;volatile
  3190  0125                     l2326:	
  3191                           
  3192                           ;mcc_generated_files/pin_manager.c: 76:     ANSELA = 0x07;
  3193  0125  3007               	movlw	7
  3194  0126  008C               	movwf	12	;volatile
  3195                           
  3196                           ;mcc_generated_files/pin_manager.c: 81:     WPUB = 0x00;
  3197  0127  0024               	movlb	4	; select bank4
  3198  0128  018D               	clrf	13	;volatile
  3199                           
  3200                           ;mcc_generated_files/pin_manager.c: 82:     WPUA = 0x00;
  3201  0129  018C               	clrf	12	;volatile
  3202                           
  3203                           ;mcc_generated_files/pin_manager.c: 83:     WPUC = 0x00;
  3204  012A  018E               	clrf	14	;volatile
  3205                           
  3206                           ;mcc_generated_files/pin_manager.c: 88:     ODCONA = 0x00;
  3207  012B  0025               	movlb	5	; select bank5
  3208  012C  018C               	clrf	12	;volatile
  3209                           
  3210                           ;mcc_generated_files/pin_manager.c: 89:     ODCONB = 0x00;
  3211  012D  018D               	clrf	13	;volatile
  3212                           
  3213                           ;mcc_generated_files/pin_manager.c: 90:     ODCONC = 0x00;
  3214  012E  018E               	clrf	14	;volatile
  3215  012F                     l2328:	
  3216                           
  3217                           ;mcc_generated_files/pin_manager.c: 95:     SLRCONA = 0x37;
  3218  012F  3037               	movlw	55
  3219  0130  0026               	movlb	6	; select bank6
  3220  0131  008C               	movwf	12	;volatile
  3221  0132                     l2330:	
  3222                           
  3223                           ;mcc_generated_files/pin_manager.c: 96:     SLRCONB = 0xF0;
  3224  0132  30F0               	movlw	240
  3225  0133  008D               	movwf	13	;volatile
  3226  0134                     l2332:	
  3227                           
  3228                           ;mcc_generated_files/pin_manager.c: 97:     SLRCONC = 0xFF;
  3229  0134  30FF               	movlw	255
  3230  0135  008E               	movwf	14	;volatile
  3231  0136                     l2334:	
  3232                           
  3233                           ;mcc_generated_files/pin_manager.c: 102:     INLVLA = 0x3F;
  3234  0136  303F               	movlw	63
  3235  0137  0027               	movlb	7	; select bank7
  3236  0138  008C               	movwf	12	;volatile
  3237  0139                     l2336:	
  3238                           
  3239                           ;mcc_generated_files/pin_manager.c: 103:     INLVLB = 0xF0;
  3240  0139  30F0               	movlw	240
  3241  013A  008D               	movwf	13	;volatile
  3242  013B                     l2338:	
  3243                           
  3244                           ;mcc_generated_files/pin_manager.c: 104:     INLVLC = 0xFF;
  3245  013B  30FF               	movlw	255
  3246  013C  008E               	movwf	14	;volatile
  3247  013D                     l2340:	
  3248                           
  3249                           ;mcc_generated_files/pin_manager.c: 113:     SSP1CLKPPS = 0x05;
  3250  013D  3005               	movlw	5
  3251  013E  003C               	movlb	28	; select bank28
  3252  013F  00A0               	movwf	32	;volatile
  3253  0140                     l2342:	
  3254                           
  3255                           ;mcc_generated_files/pin_manager.c: 114:     RA4PPS = 0x19;
  3256  0140  3019               	movlw	25
  3257  0141  003D               	movlb	29	; select bank29
  3258  0142  0094               	movwf	20	;volatile
  3259  0143                     l2344:	
  3260                           
  3261                           ;mcc_generated_files/pin_manager.c: 115:     RA5PPS = 0x18;
  3262  0143  3018               	movlw	24
  3263  0144  0095               	movwf	21	;volatile
  3264  0145                     l2346:	
  3265                           
  3266                           ;mcc_generated_files/pin_manager.c: 116:     SSP1DATPPS = 0x04;
  3267  0145  3004               	movlw	4
  3268  0146  003C               	movlb	28	; select bank28
  3269  0147  00A1               	movwf	33	;volatile
  3270  0148                     l542:	
  3271  0148  0008               	return
  3272  0149                     __end_of_PIN_MANAGER_Initialize:	
  3273                           
  3274                           	psect	text5
  3275  0383                     __ptext5:	
  3276 ;; *************** function _OSCILLATOR_Initialize *****************
  3277 ;; Defined at:
  3278 ;;		line 60 in file "mcc_generated_files/mcc.c"
  3279 ;; Parameters:    Size  Location     Type
  3280 ;;		None
  3281 ;; Auto vars:     Size  Location     Type
  3282 ;;		None
  3283 ;; Return value:  Size  Location     Type
  3284 ;;                  1    wreg      void 
  3285 ;; Registers used:
  3286 ;;		wreg, status,2
  3287 ;; Tracked objects:
  3288 ;;		On entry : 0/0
  3289 ;;		On exit  : 0/0
  3290 ;;		Unchanged: 0/0
  3291 ;; Data sizes:     COMMON   BANK0   BANK1   BANK2   BANK3   BANK4   BANK5   BANK6   BANK7   BANK8   BANK9  BANK10  BANK1
      +1  BANK12  BANK13  BANK14  BANK15  BANK16  BANK17  BANK18  BANK19  BANK20  BANK21  BANK22  BANK23  BANK24  BANK25
  3292 ;;      Params:         0       0       0       0       0       0       0       0       0       0       0       0       
      +0       0       0       0       0       0       0       0       0       0       0       0       0       0       0
  3293 ;;      Locals:         0       0       0       0       0       0       0       0       0       0       0       0       
      +0       0       0       0       0       0       0       0       0       0       0       0       0       0       0
  3294 ;;      Temps:          0       0       0       0       0       0       0       0       0       0       0       0       
      +0       0       0       0       0       0       0       0       0       0       0       0       0       0       0
  3295 ;;      Totals:         0       0       0       0       0       0       0       0       0       0       0       0       
      +0       0       0       0       0       0       0       0       0       0       0       0       0       0       0
  3296 ;;Total ram usage:        0 bytes
  3297 ;; Hardware stack levels used:    1
  3298 ;; Hardware stack levels required when called:    7
  3299 ;; This function calls:
  3300 ;;		Nothing
  3301 ;; This function is called by:
  3302 ;;		_SYSTEM_Initialize
  3303 ;; This function uses a non-reentrant model
  3304 ;;
  3305                           
  3306                           
  3307                           ;psect for function _OSCILLATOR_Initialize
  3308  0383                     _OSCILLATOR_Initialize:	
  3309  0383                     l2348:	
  3310                           ;incstack = 0
  3311                           ; Regs used in _OSCILLATOR_Initialize: [wreg+status,2]
  3312                           
  3313                           
  3314                           ;mcc_generated_files/mcc.c: 63:     OSCCON1 = 0x60;
  3315  0383  3060               	movlw	96
  3316  0384  0032               	movlb	18	; select bank18
  3317  0385  0099               	movwf	25	;volatile
  3318  0386                     l2350:	
  3319                           
  3320                           ;mcc_generated_files/mcc.c: 65:     OSCCON3 = 0x00;
  3321  0386  019B               	clrf	27	;volatile
  3322  0387                     l2352:	
  3323                           
  3324                           ;mcc_generated_files/mcc.c: 67:     OSCEN = 0x00;
  3325  0387  019D               	clrf	29	;volatile
  3326                           
  3327                           ;mcc_generated_files/mcc.c: 69:     OSCFRQ = 0x07;
  3328  0388  3007               	movlw	7
  3329  0389  009F               	movwf	31	;volatile
  3330  038A                     l2354:	
  3331                           
  3332                           ;mcc_generated_files/mcc.c: 71:     OSCTUNE = 0x00;
  3333  038A  019E               	clrf	30	;volatile
  3334  038B                     l483:	
  3335  038B  0008               	return
  3336  038C                     __end_of_OSCILLATOR_Initialize:	
  3337                           
  3338                           	psect	text6
  3339  0379                     __ptext6:	
  3340 ;; *************** function _I2C1_Initialize *****************
  3341 ;; Defined at:
  3342 ;;		line 167 in file "mcc_generated_files/i2c1_master.c"
  3343 ;; Parameters:    Size  Location     Type
  3344 ;;		None
  3345 ;; Auto vars:     Size  Location     Type
  3346 ;;		None
  3347 ;; Return value:  Size  Location     Type
  3348 ;;                  1    wreg      void 
  3349 ;; Registers used:
  3350 ;;		wreg, status,2
  3351 ;; Tracked objects:
  3352 ;;		On entry : 0/0
  3353 ;;		On exit  : 0/0
  3354 ;;		Unchanged: 0/0
  3355 ;; Data sizes:     COMMON   BANK0   BANK1   BANK2   BANK3   BANK4   BANK5   BANK6   BANK7   BANK8   BANK9  BANK10  BANK1
      +1  BANK12  BANK13  BANK14  BANK15  BANK16  BANK17  BANK18  BANK19  BANK20  BANK21  BANK22  BANK23  BANK24  BANK25
  3356 ;;      Params:         0       0       0       0       0       0       0       0       0       0       0       0       
      +0       0       0       0       0       0       0       0       0       0       0       0       0       0       0
  3357 ;;      Locals:         0       0       0       0       0       0       0       0       0       0       0       0       
      +0       0       0       0       0       0       0       0       0       0       0       0       0       0       0
  3358 ;;      Temps:          0       0       0       0       0       0       0       0       0       0       0       0       
      +0       0       0       0       0       0       0       0       0       0       0       0       0       0       0
  3359 ;;      Totals:         0       0       0       0       0       0       0       0       0       0       0       0       
      +0       0       0       0       0       0       0       0       0       0       0       0       0       0       0
  3360 ;;Total ram usage:        0 bytes
  3361 ;; Hardware stack levels used:    1
  3362 ;; Hardware stack levels required when called:    7
  3363 ;; This function calls:
  3364 ;;		Nothing
  3365 ;; This function is called by:
  3366 ;;		_SYSTEM_Initialize
  3367 ;; This function uses a non-reentrant model
  3368 ;;
  3369                           
  3370                           
  3371                           ;psect for function _I2C1_Initialize
  3372  0379                     _I2C1_Initialize:	
  3373  0379                     l2294:	
  3374                           ;incstack = 0
  3375                           ; Regs used in _I2C1_Initialize: [wreg+status,2]
  3376                           
  3377                           
  3378                           ;mcc_generated_files/i2c1_master.c: 169:     SSP1STAT = 0xC0;
  3379  0379  30C0               	movlw	192
  3380  037A  0024               	movlb	4	; select bank4
  3381  037B  0094               	movwf	20	;volatile
  3382                           
  3383                           ;mcc_generated_files/i2c1_master.c: 170:     SSP1CON1 = 0x08;
  3384  037C  3008               	movlw	8
  3385  037D  0095               	movwf	21	;volatile
  3386  037E                     l2296:	
  3387                           
  3388                           ;mcc_generated_files/i2c1_master.c: 171:     SSP1CON2 = 0x00;
  3389  037E  0196               	clrf	22	;volatile
  3390  037F                     l2298:	
  3391                           
  3392                           ;mcc_generated_files/i2c1_master.c: 172:     SSP1ADD = 0x4F;
  3393  037F  304F               	movlw	79
  3394  0380  0092               	movwf	18	;volatile
  3395  0381                     l2300:	
  3396                           
  3397                           ;mcc_generated_files/i2c1_master.c: 173:     SSP1CON1bits.SSPEN = 0;
  3398  0381  1295               	bcf	21,5	;volatile
  3399  0382                     l211:	
  3400  0382  0008               	return
  3401  0383                     __end_of_I2C1_Initialize:	
  3402                           
  3403                           	psect	text7
  3404  01CF                     __ptext7:	
  3405 ;; *************** function _I2C1_WriteNBytes *****************
  3406 ;; Defined at:
  3407 ;;		line 111 in file "mcc_generated_files/examples/i2c1_master_example.c"
  3408 ;; Parameters:    Size  Location     Type
  3409 ;;  address         1    wreg     unsigned char 
  3410 ;;  data            1   12[BANK0 ] PTR unsigned char 
  3411 ;;		 -> I2C_TxBuffer(1), 
  3412 ;;  len             2   13[BANK0 ] unsigned int 
  3413 ;; Auto vars:     Size  Location     Type
  3414 ;;  address         1   15[BANK0 ] unsigned char 
  3415 ;; Return value:  Size  Location     Type
  3416 ;;                  1    wreg      void 
  3417 ;; Registers used:
  3418 ;;		wreg, fsr1l, fsr1h, status,2, status,0, pclath, cstack
  3419 ;; Tracked objects:
  3420 ;;		On entry : 0/0
  3421 ;;		On exit  : 0/0
  3422 ;;		Unchanged: 0/0
  3423 ;; Data sizes:     COMMON   BANK0   BANK1   BANK2   BANK3   BANK4   BANK5   BANK6   BANK7   BANK8   BANK9  BANK10  BANK1
      +1  BANK12  BANK13  BANK14  BANK15  BANK16  BANK17  BANK18  BANK19  BANK20  BANK21  BANK22  BANK23  BANK24  BANK25
  3424 ;;      Params:         0       3       0       0       0       0       0       0       0       0       0       0       
      +0       0       0       0       0       0       0       0       0       0       0       0       0       0       0
  3425 ;;      Locals:         0       1       0       0       0       0       0       0       0       0       0       0       
      +0       0       0       0       0       0       0       0       0       0       0       0       0       0       0
  3426 ;;      Temps:          0       0       0       0       0       0       0       0       0       0       0       0       
      +0       0       0       0       0       0       0       0       0       0       0       0       0       0       0
  3427 ;;      Totals:         0       4       0       0       0       0       0       0       0       0       0       0       
      +0       0       0       0       0       0       0       0       0       0       0       0       0       0       0
  3428 ;;Total ram usage:        4 bytes
  3429 ;; Hardware stack levels used:    1
  3430 ;; Hardware stack levels required when called:   10
  3431 ;; This function calls:
  3432 ;;		_I2C1_Close
  3433 ;;		_I2C1_MasterWrite
  3434 ;;		_I2C1_Open
  3435 ;;		_I2C1_SetAddressNackCallback
  3436 ;;		_I2C1_SetBuffer
  3437 ;; This function is called by:
  3438 ;;		_main
  3439 ;; This function uses a non-reentrant model
  3440 ;;
  3441                           
  3442                           
  3443                           ;psect for function _I2C1_WriteNBytes
  3444  01CF                     _I2C1_WriteNBytes:	
  3445                           
  3446                           ;incstack = 0
  3447                           ; Regs used in _I2C1_WriteNBytes: [wreg+fsr1l+fsr1h+status,2+status,0+pclath+cstack]
  3448                           ;I2C1_WriteNBytes@address stored from wreg
  3449  01CF  0020               	movlb	0	; select bank0
  3450  01D0  00CF               	movwf	I2C1_WriteNBytes@address
  3451  01D1                     l2358:	
  3452  01D1                     l2360:	
  3453                           ;mcc_generated_files/examples/i2c1_master_example.c: 111: void I2C1_WriteNBytes(i2c1_add
      +                          ress_t address, uint8_t* data, size_t len);mcc_generated_files/examples/i2c1_master_exam
      +                          ple.c: 112: {;mcc_generated_files/examples/i2c1_master_example.c: 113:     while(!I2C1_O
      +                          pen(address));
  3454                           
  3455  01D1  0020               	movlb	0	; select bank0
  3456  01D2  084F               	movf	I2C1_WriteNBytes@address,w
  3457  01D3  3180  20D0  3181   	fcall	_I2C1_Open
  3458  01D6  3A00               	xorlw	0
  3459  01D7  1903               	skipnz
  3460  01D8  29DA               	goto	u501
  3461  01D9  29DB               	goto	u500
  3462  01DA                     u501:	
  3463  01DA  29D1               	goto	l2360
  3464  01DB                     u500:	
  3465  01DB                     l2362:	
  3466                           
  3467                           ;mcc_generated_files/examples/i2c1_master_example.c: 114:     I2C1_SetBuffer(data,len);
  3468  01DB  0020               	movlb	0	; select bank0
  3469  01DC  084E               	movf	I2C1_WriteNBytes@len+1,w
  3470  01DD  00C4               	movwf	I2C1_SetBuffer@bufferSize+1
  3471  01DE  084D               	movf	I2C1_WriteNBytes@len,w
  3472  01DF  00C3               	movwf	I2C1_SetBuffer@bufferSize
  3473  01E0  084C               	movf	I2C1_WriteNBytes@data,w
  3474  01E1  3183  2330  3181   	fcall	_I2C1_SetBuffer
  3475  01E4                     l2364:	
  3476                           
  3477                           ;mcc_generated_files/examples/i2c1_master_example.c: 115:     I2C1_SetAddressNackCallbac
      +                          k(((void*)0),((void*)0));
  3478  01E4  3000               	movlw	0
  3479  01E5  0020               	movlb	0	; select bank0
  3480  01E6  00C8               	movwf	I2C1_SetAddressNackCallback@cb
  3481  01E7  00C9               	movwf	I2C1_SetAddressNackCallback@cb+1
  3482  01E8  01CA               	clrf	I2C1_SetAddressNackCallback@ptr
  3483  01E9  3183  2350  3181   	fcall	_I2C1_SetAddressNackCallback
  3484  01EC                     l2366:	
  3485                           
  3486                           ;mcc_generated_files/examples/i2c1_master_example.c: 116:     I2C1_MasterWrite();
  3487  01EC  3183  23BE  3181   	fcall	_I2C1_MasterWrite
  3488  01EF                     l2368:	
  3489                           ;mcc_generated_files/examples/i2c1_master_example.c: 117:     while(I2C1_BUSY == I2C1_Cl
      +                          ose());
  3490                           
  3491  01EF  3182  22A8  3181   	fcall	_I2C1_Close
  3492  01F2  3A01               	xorlw	1
  3493  01F3  1903               	skipnz
  3494  01F4  29F6               	goto	u511
  3495  01F5  29F7               	goto	u510
  3496  01F6                     u511:	
  3497  01F6  29EF               	goto	l2368
  3498  01F7                     u510:	
  3499  01F7                     l71:	
  3500  01F7  0008               	return
  3501  01F8                     __end_of_I2C1_WriteNBytes:	
  3502                           
  3503                           	psect	text8
  3504  0330                     __ptext8:	
  3505 ;; *************** function _I2C1_SetBuffer *****************
  3506 ;; Defined at:
  3507 ;;		line 264 in file "mcc_generated_files/i2c1_master.c"
  3508 ;; Parameters:    Size  Location     Type
  3509 ;;  buffer          1    wreg     PTR void 
  3510 ;;		 -> I2C_TxBuffer(1), I2C1_ReadDataBlock@reg(1), I2C1_ReadDataBlock@bufferBlock(3), I2C1_Write2ByteRegister@reg(1), 
  3511 ;;		 -> I2C1_Write2ByteRegister@data(2), I2C1_Write1ByteRegister@reg(1), I2C1_Write1ByteRegister@data(1), I2C1_Read2Byte
      +Register@reg(1), 
  3512 ;;		 -> I2C1_Read2ByteRegister@returnValue(2), NULL(0), I2C1_Read1ByteRegister@reg(1), I2C1_Read1ByteRegister@returnValu
      +e(1), 
  3513 ;;  bufferSize      2    3[BANK0 ] unsigned int 
  3514 ;; Auto vars:     Size  Location     Type
  3515 ;;  buffer          1    6[BANK0 ] PTR void 
  3516 ;;		 -> I2C_TxBuffer(1), I2C1_ReadDataBlock@reg(1), I2C1_ReadDataBlock@bufferBlock(3), I2C1_Write2ByteRegister@reg(1), 
  3517 ;;		 -> I2C1_Write2ByteRegister@data(2), I2C1_Write1ByteRegister@reg(1), I2C1_Write1ByteRegister@data(1), I2C1_Read2Byte
      +Register@reg(1), 
  3518 ;;		 -> I2C1_Read2ByteRegister@returnValue(2), NULL(0), I2C1_Read1ByteRegister@reg(1), I2C1_Read1ByteRegister@returnValu
      +e(1), 
  3519 ;; Return value:  Size  Location     Type
  3520 ;;                  1    wreg      void 
  3521 ;; Registers used:
  3522 ;;		wreg
  3523 ;; Tracked objects:
  3524 ;;		On entry : 0/0
  3525 ;;		On exit  : 0/0
  3526 ;;		Unchanged: 0/0
  3527 ;; Data sizes:     COMMON   BANK0   BANK1   BANK2   BANK3   BANK4   BANK5   BANK6   BANK7   BANK8   BANK9  BANK10  BANK1
      +1  BANK12  BANK13  BANK14  BANK15  BANK16  BANK17  BANK18  BANK19  BANK20  BANK21  BANK22  BANK23  BANK24  BANK25
  3528 ;;      Params:         0       2       0       0       0       0       0       0       0       0       0       0       
      +0       0       0       0       0       0       0       0       0       0       0       0       0       0       0
  3529 ;;      Locals:         0       1       0       0       0       0       0       0       0       0       0       0       
      +0       0       0       0       0       0       0       0       0       0       0       0       0       0       0
  3530 ;;      Temps:          0       1       0       0       0       0       0       0       0       0       0       0       
      +0       0       0       0       0       0       0       0       0       0       0       0       0       0       0
  3531 ;;      Totals:         0       4       0       0       0       0       0       0       0       0       0       0       
      +0       0       0       0       0       0       0       0       0       0       0       0       0       0       0
  3532 ;;Total ram usage:        4 bytes
  3533 ;; Hardware stack levels used:    1
  3534 ;; Hardware stack levels required when called:    7
  3535 ;; This function calls:
  3536 ;;		Nothing
  3537 ;; This function is called by:
  3538 ;;		_I2C1_WriteNBytes
  3539 ;;		_I2C1_Read1ByteRegister
  3540 ;;		_I2C1_Read2ByteRegister
  3541 ;;		_I2C1_Write1ByteRegister
  3542 ;;		_I2C1_Write2ByteRegister
  3543 ;;		_I2C1_ReadNBytes
  3544 ;;		_I2C1_ReadDataBlock
  3545 ;; This function uses a non-reentrant model
  3546 ;;
  3547                           
  3548                           
  3549                           ;psect for function _I2C1_SetBuffer
  3550  0330                     _I2C1_SetBuffer:	
  3551                           
  3552                           ;incstack = 0
  3553                           ; Regs used in _I2C1_SetBuffer: [wreg]
  3554                           ;I2C1_SetBuffer@buffer stored from wreg
  3555  0330  0020               	movlb	0	; select bank0
  3556  0331  00C6               	movwf	I2C1_SetBuffer@buffer
  3557  0332                     l2264:	
  3558                           
  3559                           ;mcc_generated_files/i2c1_master.c: 264: void I2C1_SetBuffer(void *buffer, size_t buffer
      +                          Size);mcc_generated_files/i2c1_master.c: 265: {;mcc_generated_files/i2c1_master.c: 266: 
      +                              if(I2C1_Status.bufferFree)
  3560  0332  1DBC               	btfss	_I2C1_Status+28,3
  3561  0333  2B35               	goto	u461
  3562  0334  2B36               	goto	u460
  3563  0335                     u461:	
  3564  0335  2B3F               	goto	l238
  3565  0336                     u460:	
  3566  0336                     l2266:	
  3567                           
  3568                           ;mcc_generated_files/i2c1_master.c: 267:     {;mcc_generated_files/i2c1_master.c: 268:  
      +                                 I2C1_Status.data_ptr = buffer;
  3569  0336  0846               	movf	I2C1_SetBuffer@buffer,w
  3570  0337  00C5               	movwf	??_I2C1_SetBuffer
  3571  0338  0845               	movf	??_I2C1_SetBuffer,w
  3572  0339  00B7               	movwf	low ((_I2C1_Status| 0+23))
  3573                           
  3574                           ;mcc_generated_files/i2c1_master.c: 269:         I2C1_Status.data_length = bufferSize;
  3575  033A  0844               	movf	I2C1_SetBuffer@bufferSize+1,w
  3576  033B  00B9               	movwf	_I2C1_Status+25
  3577  033C  0843               	movf	I2C1_SetBuffer@bufferSize,w
  3578  033D  00B8               	movwf	_I2C1_Status+24
  3579  033E                     l2268:	
  3580                           
  3581                           ;mcc_generated_files/i2c1_master.c: 270:         I2C1_Status.bufferFree = 0;
  3582  033E  11BC               	bcf	_I2C1_Status+28,3
  3583  033F                     l238:	
  3584  033F  0008               	return
  3585  0340                     __end_of_I2C1_SetBuffer:	
  3586                           
  3587                           	psect	text9
  3588  0350                     __ptext9:	
  3589 ;; *************** function _I2C1_SetAddressNackCallback *****************
  3590 ;; Defined at:
  3591 ;;		line 284 in file "mcc_generated_files/i2c1_master.c"
  3592 ;; Parameters:    Size  Location     Type
  3593 ;;  cb              2    8[BANK0 ] PTR FTN(PTR void ,)enum 
  3594 ;;		 -> Absolute function(1), 
  3595 ;;  ptr             1   10[BANK0 ] PTR void 
  3596 ;;		 -> NULL(0), 
  3597 ;; Auto vars:     Size  Location     Type
  3598 ;;		None
  3599 ;; Return value:  Size  Location     Type
  3600 ;;                  1    wreg      void 
  3601 ;; Registers used:
  3602 ;;		wreg, fsr1l, fsr1h, status,2, status,0, pclath, cstack
  3603 ;; Tracked objects:
  3604 ;;		On entry : 0/0
  3605 ;;		On exit  : 0/0
  3606 ;;		Unchanged: 0/0
  3607 ;; Data sizes:     COMMON   BANK0   BANK1   BANK2   BANK3   BANK4   BANK5   BANK6   BANK7   BANK8   BANK9  BANK10  BANK1
      +1  BANK12  BANK13  BANK14  BANK15  BANK16  BANK17  BANK18  BANK19  BANK20  BANK21  BANK22  BANK23  BANK24  BANK25
  3608 ;;      Params:         0       3       0       0       0       0       0       0       0       0       0       0       
      +0       0       0       0       0       0       0       0       0       0       0       0       0       0       0
  3609 ;;      Locals:         0       0       0       0       0       0       0       0       0       0       0       0       
      +0       0       0       0       0       0       0       0       0       0       0       0       0       0       0
  3610 ;;      Temps:          0       1       0       0       0       0       0       0       0       0       0       0       
      +0       0       0       0       0       0       0       0       0       0       0       0       0       0       0
  3611 ;;      Totals:         0       4       0       0       0       0       0       0       0       0       0       0       
      +0       0       0       0       0       0       0       0       0       0       0       0       0       0       0
  3612 ;;Total ram usage:        4 bytes
  3613 ;; Hardware stack levels used:    1
  3614 ;; Hardware stack levels required when called:    8
  3615 ;; This function calls:
  3616 ;;		_I2C1_SetCallback
  3617 ;; This function is called by:
  3618 ;;		_I2C1_WriteNBytes
  3619 ;;		_I2C1_Read1ByteRegister
  3620 ;;		_I2C1_Read2ByteRegister
  3621 ;;		_I2C1_Write1ByteRegister
  3622 ;;		_I2C1_Write2ByteRegister
  3623 ;;		_I2C1_ReadDataBlock
  3624 ;; This function uses a non-reentrant model
  3625 ;;
  3626                           
  3627                           
  3628                           ;psect for function _I2C1_SetAddressNackCallback
  3629  0350                     _I2C1_SetAddressNackCallback:	
  3630  0350                     l2270:	
  3631                           ;incstack = 0
  3632                           ; Regs used in _I2C1_SetAddressNackCallback: [wreg+fsr1l+fsr1h+status,2+status,0+pclath+
      +                          cstack]
  3633                           
  3634                           
  3635                           ;mcc_generated_files/i2c1_master.c: 284: void I2C1_SetAddressNackCallback(i2c1_callback_
      +                          t cb, void *ptr);mcc_generated_files/i2c1_master.c: 285: {;mcc_generated_files/i2c1_mast
      +                          er.c: 286:     I2C1_SetCallback(I2C1_ADDR_NACK, cb, ptr);
  3636  0350  0020               	movlb	0	; select bank0
  3637  0351  0849               	movf	I2C1_SetAddressNackCallback@cb+1,w
  3638  0352  00C4               	movwf	I2C1_SetCallback@cb+1
  3639  0353  0848               	movf	I2C1_SetAddressNackCallback@cb,w
  3640  0354  00C3               	movwf	I2C1_SetCallback@cb
  3641  0355  084A               	movf	I2C1_SetAddressNackCallback@ptr,w
  3642  0356  00CB               	movwf	??_I2C1_SetAddressNackCallback
  3643  0357  084B               	movf	??_I2C1_SetAddressNackCallback,w
  3644  0358  00C5               	movwf	I2C1_SetCallback@ptr
  3645  0359  3002               	movlw	2
  3646  035A  3182  221F  3183   	fcall	_I2C1_SetCallback
  3647  035D                     l247:	
  3648  035D  0008               	return
  3649  035E                     __end_of_I2C1_SetAddressNackCallback:	
  3650                           
  3651                           	psect	text10
  3652  021F                     __ptext10:	
  3653 ;; *************** function _I2C1_SetCallback *****************
  3654 ;; Defined at:
  3655 ;;		line 304 in file "mcc_generated_files/i2c1_master.c"
  3656 ;; Parameters:    Size  Location     Type
  3657 ;;  idx             1    wreg     enum E7174
  3658 ;;  cb              2    3[BANK0 ] PTR FTN(PTR void ,)enum 
  3659 ;;		 -> Absolute function(1), rdBlkRegCompleteHandler(1), wr2RegCompleteHandler(1), wr1RegCompleteHandler(1), 
  3660 ;;		 -> rd2RegCompleteHandler(1), rd1RegCompleteHandler(1), 
  3661 ;;  ptr             1    5[BANK0 ] PTR void 
  3662 ;;		 -> I2C1_ReadDataBlock@bufferBlock(3), I2C1_Write2ByteRegister@data(2), I2C1_Write1ByteRegister@data(1), I2C1_Read2B
      +yteRegister@returnValue(2), 
  3663 ;;		 -> NULL(0), I2C1_Read1ByteRegister@returnValue(1), 
  3664 ;; Auto vars:     Size  Location     Type
  3665 ;;  idx             1    7[BANK0 ] enum E7174
  3666 ;; Return value:  Size  Location     Type
  3667 ;;                  1    wreg      void 
  3668 ;; Registers used:
  3669 ;;		wreg, fsr1l, fsr1h, status,2, status,0
  3670 ;; Tracked objects:
  3671 ;;		On entry : 0/0
  3672 ;;		On exit  : 0/0
  3673 ;;		Unchanged: 0/0
  3674 ;; Data sizes:     COMMON   BANK0   BANK1   BANK2   BANK3   BANK4   BANK5   BANK6   BANK7   BANK8   BANK9  BANK10  BANK1
      +1  BANK12  BANK13  BANK14  BANK15  BANK16  BANK17  BANK18  BANK19  BANK20  BANK21  BANK22  BANK23  BANK24  BANK25
  3675 ;;      Params:         0       3       0       0       0       0       0       0       0       0       0       0       
      +0       0       0       0       0       0       0       0       0       0       0       0       0       0       0
  3676 ;;      Locals:         0       1       0       0       0       0       0       0       0       0       0       0       
      +0       0       0       0       0       0       0       0       0       0       0       0       0       0       0
  3677 ;;      Temps:          0       1       0       0       0       0       0       0       0       0       0       0       
      +0       0       0       0       0       0       0       0       0       0       0       0       0       0       0
  3678 ;;      Totals:         0       5       0       0       0       0       0       0       0       0       0       0       
      +0       0       0       0       0       0       0       0       0       0       0       0       0       0       0
  3679 ;;Total ram usage:        5 bytes
  3680 ;; Hardware stack levels used:    1
  3681 ;; Hardware stack levels required when called:    7
  3682 ;; This function calls:
  3683 ;;		Nothing
  3684 ;; This function is called by:
  3685 ;;		_I2C1_SetAddressNackCallback
  3686 ;;		_I2C1_SetWriteCollisionCallback
  3687 ;;		_I2C1_SetDataNackCallback
  3688 ;;		_I2C1_SetTimeoutCallback
  3689 ;; This function uses a non-reentrant model
  3690 ;;
  3691                           
  3692                           
  3693                           ;psect for function _I2C1_SetCallback
  3694  021F                     _I2C1_SetCallback:	
  3695                           
  3696                           ;incstack = 0
  3697                           ; Regs used in _I2C1_SetCallback: [wreg+fsr1l+fsr1h+status,2+status,0]
  3698                           ;I2C1_SetCallback@idx stored from wreg
  3699  021F  0020               	movlb	0	; select bank0
  3700  0220  00C7               	movwf	I2C1_SetCallback@idx
  3701  0221                     l2066:	
  3702                           
  3703                           ;mcc_generated_files/i2c1_master.c: 304: static void I2C1_SetCallback(i2c1_callbackIndex
      +                          _t idx, i2c1_callback_t cb, void *ptr);mcc_generated_files/i2c1_master.c: 305: {;mcc_gen
      +                          erated_files/i2c1_master.c: 306:     if(cb)
  3704  0221  0843               	movf	I2C1_SetCallback@cb,w
  3705  0222  0444               	iorwf	I2C1_SetCallback@cb+1,w
  3706  0223  1903               	btfsc	3,2
  3707  0224  2A26               	goto	u411
  3708  0225  2A27               	goto	u410
  3709  0226                     u411:	
  3710  0226  2A38               	goto	l2070
  3711  0227                     u410:	
  3712  0227                     l2068:	
  3713                           
  3714                           ;mcc_generated_files/i2c1_master.c: 307:     {;mcc_generated_files/i2c1_master.c: 308:  
      +                                 I2C1_Status.callbackTable[idx] = cb;
  3715  0227  3547               	lslf	I2C1_SetCallback@idx,w
  3716  0228  3E20               	addlw	(low (_I2C1_Status| 0))& (0+255)
  3717  0229  0086               	movwf	6
  3718  022A  0187               	clrf	7
  3719  022B  0843               	movf	I2C1_SetCallback@cb,w
  3720  022C  3FC0               	movwi [0]fsr1
  3721  022D  0844               	movf	I2C1_SetCallback@cb+1,w
  3722  022E  3FC1               	movwi [1]fsr1
  3723                           
  3724                           ;mcc_generated_files/i2c1_master.c: 309:         I2C1_Status.callbackPayload[idx] = ptr;
  3725  022F  0845               	movf	I2C1_SetCallback@ptr,w
  3726  0230  00C6               	movwf	??_I2C1_SetCallback
  3727  0231  0847               	movf	I2C1_SetCallback@idx,w
  3728  0232  3E2C               	addlw	(low ((_I2C1_Status| 0+12)))& (0+255)
  3729  0233  0086               	movwf	6
  3730  0234  0187               	clrf	7
  3731  0235  0846               	movf	??_I2C1_SetCallback,w
  3732  0236  0081               	movwf	1
  3733                           
  3734                           ;mcc_generated_files/i2c1_master.c: 310:     }
  3735  0237  2A45               	goto	l261
  3736  0238                     l2070:	
  3737                           
  3738                           ;mcc_generated_files/i2c1_master.c: 312:     {;mcc_generated_files/i2c1_master.c: 313:  
      +                                 I2C1_Status.callbackTable[idx] = I2C1_CallbackReturnStop;
  3739  0238  3547               	lslf	I2C1_SetCallback@idx,w
  3740  0239  3E20               	addlw	(low (_I2C1_Status| 0))& (0+255)
  3741  023A  0086               	movwf	6
  3742  023B  0187               	clrf	7
  3743  023C  3028               	movlw	low _I2C1_CallbackReturnStop
  3744  023D  3FC0               	movwi [0]fsr1
  3745  023E  3004               	movlw	high _I2C1_CallbackReturnStop
  3746  023F  3FC1               	movwi [1]fsr1
  3747                           
  3748                           ;mcc_generated_files/i2c1_master.c: 314:         I2C1_Status.callbackPayload[idx] = ((vo
      +                          id*)0);
  3749  0240  0847               	movf	I2C1_SetCallback@idx,w
  3750  0241  3E2C               	addlw	(low ((_I2C1_Status| 0+12)))& (0+255)
  3751  0242  0086               	movwf	6
  3752  0243  0187               	clrf	7
  3753  0244  0181               	clrf	1
  3754  0245                     l261:	
  3755  0245  0008               	return
  3756  0246                     __end_of_I2C1_SetCallback:	
  3757                           
  3758                           	psect	text11
  3759  00D0                     __ptext11:	
  3760 ;; *************** function _I2C1_Open *****************
  3761 ;; Defined at:
  3762 ;;		line 176 in file "mcc_generated_files/i2c1_master.c"
  3763 ;; Parameters:    Size  Location     Type
  3764 ;;  address         1    wreg     unsigned char 
  3765 ;; Auto vars:     Size  Location     Type
  3766 ;;  address         1    6[BANK0 ] unsigned char 
  3767 ;;  returnValue     1    7[BANK0 ] enum E353
  3768 ;; Return value:  Size  Location     Type
  3769 ;;                  1    wreg      enum E353
  3770 ;; Registers used:
  3771 ;;		wreg, status,2, status,0, pclath, cstack
  3772 ;; Tracked objects:
  3773 ;;		On entry : 0/0
  3774 ;;		On exit  : 0/0
  3775 ;;		Unchanged: 0/0
  3776 ;; Data sizes:     COMMON   BANK0   BANK1   BANK2   BANK3   BANK4   BANK5   BANK6   BANK7   BANK8   BANK9  BANK10  BANK1
      +1  BANK12  BANK13  BANK14  BANK15  BANK16  BANK17  BANK18  BANK19  BANK20  BANK21  BANK22  BANK23  BANK24  BANK25
  3777 ;;      Params:         0       0       0       0       0       0       0       0       0       0       0       0       
      +0       0       0       0       0       0       0       0       0       0       0       0       0       0       0
  3778 ;;      Locals:         0       2       0       0       0       0       0       0       0       0       0       0       
      +0       0       0       0       0       0       0       0       0       0       0       0       0       0       0
  3779 ;;      Temps:          0       1       0       0       0       0       0       0       0       0       0       0       
      +0       0       0       0       0       0       0       0       0       0       0       0       0       0       0
  3780 ;;      Totals:         0       3       0       0       0       0       0       0       0       0       0       0       
      +0       0       0       0       0       0       0       0       0       0       0       0       0       0       0
  3781 ;;Total ram usage:        3 bytes
  3782 ;; Hardware stack levels used:    1
  3783 ;; Hardware stack levels required when called:    8
  3784 ;; This function calls:
  3785 ;;		_I2C1_MasterClearIrq
  3786 ;;		_I2C1_MasterEnableIrq
  3787 ;;		_I2C1_MasterOpen
  3788 ;;		_I2C1_SetInterruptHandler
  3789 ;; This function is called by:
  3790 ;;		_I2C1_WriteNBytes
  3791 ;;		_I2C1_Read1ByteRegister
  3792 ;;		_I2C1_Read2ByteRegister
  3793 ;;		_I2C1_Write1ByteRegister
  3794 ;;		_I2C1_Write2ByteRegister
  3795 ;;		_I2C1_ReadNBytes
  3796 ;;		_I2C1_ReadDataBlock
  3797 ;; This function uses a non-reentrant model
  3798 ;;
  3799                           
  3800                           
  3801                           ;psect for function _I2C1_Open
  3802  00D0                     _I2C1_Open:	
  3803                           
  3804                           ;incstack = 0
  3805                           ; Regs used in _I2C1_Open: [wreg+status,2+status,0+pclath+cstack]
  3806                           ;I2C1_Open@address stored from wreg
  3807  00D0  0020               	movlb	0	; select bank0
  3808  00D1  00C6               	movwf	I2C1_Open@address
  3809  00D2                     l2228:	
  3810                           
  3811                           ;mcc_generated_files/i2c1_master.c: 176: i2c1_error_t I2C1_Open(i2c1_address_t address);
      +                          mcc_generated_files/i2c1_master.c: 177: {;mcc_generated_files/i2c1_master.c: 178:     i2
      +                          c1_error_t returnValue = I2C1_BUSY;
  3812  00D2  01C7               	clrf	I2C1_Open@returnValue
  3813  00D3  0AC7               	incf	I2C1_Open@returnValue,f
  3814                           
  3815                           ;mcc_generated_files/i2c1_master.c: 180:     if(!I2C1_Status.inUse)
  3816  00D4  193C               	btfsc	_I2C1_Status+28,2
  3817  00D5  28D7               	goto	u451
  3818  00D6  28D8               	goto	u450
  3819  00D7                     u451:	
  3820  00D7  2913               	goto	l2260
  3821  00D8                     u450:	
  3822  00D8                     l2230:	
  3823                           
  3824                           ;mcc_generated_files/i2c1_master.c: 181:     {;mcc_generated_files/i2c1_master.c: 182:  
      +                                 I2C1_Status.address = address;
  3825  00D8  0846               	movf	I2C1_Open@address,w
  3826  00D9  00C5               	movwf	??_I2C1_Open
  3827  00DA  0845               	movf	??_I2C1_Open,w
  3828  00DB  00B6               	movwf	_I2C1_Status+22
  3829  00DC                     l2232:	
  3830                           
  3831                           ;mcc_generated_files/i2c1_master.c: 183:         I2C1_Status.busy = 0;
  3832  00DC  10BC               	bcf	_I2C1_Status+28,1
  3833  00DD                     l2234:	
  3834                           
  3835                           ;mcc_generated_files/i2c1_master.c: 184:         I2C1_Status.inUse = 1;
  3836  00DD  153C               	bsf	_I2C1_Status+28,2
  3837  00DE                     l2236:	
  3838                           
  3839                           ;mcc_generated_files/i2c1_master.c: 185:         I2C1_Status.addressNackCheck = 0;
  3840  00DE  103C               	bcf	_I2C1_Status+28,0
  3841                           
  3842                           ;mcc_generated_files/i2c1_master.c: 186:         I2C1_Status.state = I2C1_RESET;
  3843  00DF  300E               	movlw	14
  3844  00E0  00C5               	movwf	??_I2C1_Open
  3845  00E1  0845               	movf	??_I2C1_Open,w
  3846  00E2  00BA               	movwf	_I2C1_Status+26
  3847                           
  3848                           ;mcc_generated_files/i2c1_master.c: 187:         I2C1_Status.time_out_value = 500;
  3849  00E3  30F4               	movlw	244
  3850  00E4  00B4               	movwf	_I2C1_Status+20
  3851  00E5  3001               	movlw	1
  3852  00E6  00B5               	movwf	_I2C1_Status+21
  3853  00E7                     l2238:	
  3854                           
  3855                           ;mcc_generated_files/i2c1_master.c: 188:         I2C1_Status.bufferFree = 1;
  3856  00E7  15BC               	bsf	_I2C1_Status+28,3
  3857                           
  3858                           ;mcc_generated_files/i2c1_master.c: 191:         I2C1_Status.callbackTable[I2C1_DATA_COM
      +                          PLETE]=I2C1_CallbackReturnStop;
  3859  00E8  3028               	movlw	low _I2C1_CallbackReturnStop
  3860  00E9  00A0               	movwf	_I2C1_Status
  3861  00EA  3004               	movlw	high _I2C1_CallbackReturnStop
  3862  00EB  00A1               	movwf	_I2C1_Status+1
  3863  00EC                     l2240:	
  3864                           
  3865                           ;mcc_generated_files/i2c1_master.c: 192:         I2C1_Status.callbackPayload[I2C1_DATA_C
      +                          OMPLETE] = ((void*)0);
  3866  00EC  01AC               	clrf	low ((_I2C1_Status| 0+12))
  3867  00ED                     l2242:	
  3868                           
  3869                           ;mcc_generated_files/i2c1_master.c: 193:         I2C1_Status.callbackTable[I2C1_WRITE_CO
      +                          LLISION]=I2C1_CallbackReturnStop;
  3870  00ED  3028               	movlw	low _I2C1_CallbackReturnStop
  3871  00EE  00A2               	movwf	low ((_I2C1_Status| 0+2))
  3872  00EF  3004               	movlw	high _I2C1_CallbackReturnStop
  3873  00F0  00A3               	movwf	(low ((_I2C1_Status| 0+2))+1)
  3874                           
  3875                           ;mcc_generated_files/i2c1_master.c: 194:         I2C1_Status.callbackPayload[I2C1_WRITE_
      +                          COLLISION] = ((void*)0);
  3876  00F1  01AD               	clrf	low ((_I2C1_Status| 0+13))
  3877  00F2                     l2244:	
  3878                           
  3879                           ;mcc_generated_files/i2c1_master.c: 195:         I2C1_Status.callbackTable[I2C1_ADDR_NAC
      +                          K]=I2C1_CallbackReturnStop;
  3880  00F2  3028               	movlw	low _I2C1_CallbackReturnStop
  3881  00F3  00A4               	movwf	low ((_I2C1_Status| 0+4))
  3882  00F4  3004               	movlw	high _I2C1_CallbackReturnStop
  3883  00F5  00A5               	movwf	(low ((_I2C1_Status| 0+4))+1)
  3884  00F6                     l2246:	
  3885                           
  3886                           ;mcc_generated_files/i2c1_master.c: 196:         I2C1_Status.callbackPayload[I2C1_ADDR_N
      +                          ACK] = ((void*)0);
  3887  00F6  01AE               	clrf	low ((_I2C1_Status| 0+14))
  3888                           
  3889                           ;mcc_generated_files/i2c1_master.c: 197:         I2C1_Status.callbackTable[I2C1_DATA_NAC
      +                          K]=I2C1_CallbackReturnStop;
  3890  00F7  3028               	movlw	low _I2C1_CallbackReturnStop
  3891  00F8  00A6               	movwf	low ((_I2C1_Status| 0+6))
  3892  00F9  3004               	movlw	high _I2C1_CallbackReturnStop
  3893  00FA  00A7               	movwf	(low ((_I2C1_Status| 0+6))+1)
  3894  00FB                     l2248:	
  3895                           
  3896                           ;mcc_generated_files/i2c1_master.c: 198:         I2C1_Status.callbackPayload[I2C1_DATA_N
      +                          ACK] = ((void*)0);
  3897  00FB  01AF               	clrf	low ((_I2C1_Status| 0+15))
  3898  00FC                     l2250:	
  3899                           
  3900                           ;mcc_generated_files/i2c1_master.c: 199:         I2C1_Status.callbackTable[I2C1_TIMEOUT]
      +                          =I2C1_CallbackReturnReset;
  3901  00FC  3026               	movlw	low _I2C1_CallbackReturnReset
  3902  00FD  00A8               	movwf	low ((_I2C1_Status| 0+8))
  3903  00FE  3004               	movlw	high _I2C1_CallbackReturnReset
  3904  00FF  00A9               	movwf	(low ((_I2C1_Status| 0+8))+1)
  3905                           
  3906                           ;mcc_generated_files/i2c1_master.c: 200:         I2C1_Status.callbackPayload[I2C1_TIMEOU
      +                          T] = ((void*)0);
  3907  0100  01B0               	clrf	low ((_I2C1_Status| 0+16))
  3908  0101                     l2252:	
  3909                           
  3910                           ;mcc_generated_files/i2c1_master.c: 202:         I2C1_SetInterruptHandler(I2C1_MasterIsr
      +                          );
  3911  0101  30F9               	movlw	low _I2C1_MasterIsr
  3912  0102  00C3               	movwf	I2C1_SetInterruptHandler@InterruptHandler
  3913  0103  3003               	movlw	high _I2C1_MasterIsr
  3914  0104  00C4               	movwf	I2C1_SetInterruptHandler@InterruptHandler+1
  3915  0105  3183  23B2  3180   	fcall	_I2C1_SetInterruptHandler
  3916  0108                     l2254:	
  3917                           
  3918                           ;mcc_generated_files/i2c1_master.c: 203:         I2C1_MasterClearIrq();
  3919  0108  3184  2411  3180   	fcall	_I2C1_MasterClearIrq
  3920  010B                     l2256:	
  3921                           
  3922                           ;mcc_generated_files/i2c1_master.c: 204:         I2C1_MasterOpen();
  3923  010B  3183  235E  3180   	fcall	_I2C1_MasterOpen
  3924  010E                     l2258:	
  3925                           
  3926                           ;mcc_generated_files/i2c1_master.c: 205:         I2C1_MasterEnableIrq();
  3927  010E  3184  2405  3180   	fcall	_I2C1_MasterEnableIrq
  3928                           
  3929                           ;mcc_generated_files/i2c1_master.c: 206:         returnValue = I2C1_NOERR;
  3930  0111  0020               	movlb	0	; select bank0
  3931  0112  01C7               	clrf	I2C1_Open@returnValue
  3932  0113                     l2260:	
  3933                           
  3934                           ;mcc_generated_files/i2c1_master.c: 208:     return returnValue;
  3935  0113  0847               	movf	I2C1_Open@returnValue,w
  3936  0114                     l215:	
  3937  0114  0008               	return
  3938  0115                     __end_of_I2C1_Open:	
  3939                           
  3940                           	psect	text12
  3941  03B2                     __ptext12:	
  3942 ;; *************** function _I2C1_SetInterruptHandler *****************
  3943 ;; Defined at:
  3944 ;;		line 299 in file "mcc_generated_files/i2c1_master.c"
  3945 ;; Parameters:    Size  Location     Type
  3946 ;;  InterruptHan    2    3[BANK0 ] PTR FTN()void 
  3947 ;;		 -> I2C1_MasterIsr(1), 
  3948 ;; Auto vars:     Size  Location     Type
  3949 ;;		None
  3950 ;; Return value:  Size  Location     Type
  3951 ;;                  1    wreg      void 
  3952 ;; Registers used:
  3953 ;;		wreg
  3954 ;; Tracked objects:
  3955 ;;		On entry : 0/0
  3956 ;;		On exit  : 0/0
  3957 ;;		Unchanged: 0/0
  3958 ;; Data sizes:     COMMON   BANK0   BANK1   BANK2   BANK3   BANK4   BANK5   BANK6   BANK7   BANK8   BANK9  BANK10  BANK1
      +1  BANK12  BANK13  BANK14  BANK15  BANK16  BANK17  BANK18  BANK19  BANK20  BANK21  BANK22  BANK23  BANK24  BANK25
  3959 ;;      Params:         0       2       0       0       0       0       0       0       0       0       0       0       
      +0       0       0       0       0       0       0       0       0       0       0       0       0       0       0
  3960 ;;      Locals:         0       0       0       0       0       0       0       0       0       0       0       0       
      +0       0       0       0       0       0       0       0       0       0       0       0       0       0       0
  3961 ;;      Temps:          0       0       0       0       0       0       0       0       0       0       0       0       
      +0       0       0       0       0       0       0       0       0       0       0       0       0       0       0
  3962 ;;      Totals:         0       2       0       0       0       0       0       0       0       0       0       0       
      +0       0       0       0       0       0       0       0       0       0       0       0       0       0       0
  3963 ;;Total ram usage:        2 bytes
  3964 ;; Hardware stack levels used:    1
  3965 ;; Hardware stack levels required when called:    7
  3966 ;; This function calls:
  3967 ;;		Nothing
  3968 ;; This function is called by:
  3969 ;;		_I2C1_Open
  3970 ;; This function uses a non-reentrant model
  3971 ;;
  3972                           
  3973                           
  3974                           ;psect for function _I2C1_SetInterruptHandler
  3975  03B2                     _I2C1_SetInterruptHandler:	
  3976  03B2                     l2026:	
  3977                           ;incstack = 0
  3978                           ; Regs used in _I2C1_SetInterruptHandler: [wreg]
  3979                           
  3980                           
  3981                           ;mcc_generated_files/i2c1_master.c: 299: void I2C1_SetInterruptHandler(void (* Interrupt
      +                          Handler)(void));mcc_generated_files/i2c1_master.c: 300: {;mcc_generated_files/i2c1_maste
      +                          r.c: 301:     MSSP1_InterruptHandler = InterruptHandler;
  3982  03B2  0020               	movlb	0	; select bank0
  3983  03B3  0844               	movf	I2C1_SetInterruptHandler@InterruptHandler+1,w
  3984  03B4  00BE               	movwf	_MSSP1_InterruptHandler+1
  3985  03B5  0843               	movf	I2C1_SetInterruptHandler@InterruptHandler,w
  3986  03B6  00BD               	movwf	_MSSP1_InterruptHandler
  3987  03B7                     l256:	
  3988  03B7  0008               	return
  3989  03B8                     __end_of_I2C1_SetInterruptHandler:	
  3990                           
  3991                           	psect	text13
  3992  035E                     __ptext13:	
  3993 ;; *************** function _I2C1_MasterOpen *****************
  3994 ;; Defined at:
  3995 ;;		line 544 in file "mcc_generated_files/i2c1_master.c"
  3996 ;; Parameters:    Size  Location     Type
  3997 ;;		None
  3998 ;; Auto vars:     Size  Location     Type
  3999 ;;		None
  4000 ;; Return value:  Size  Location     Type
  4001 ;;                  1    wreg      _Bool 
  4002 ;; Registers used:
  4003 ;;		wreg, status,2
  4004 ;; Tracked objects:
  4005 ;;		On entry : 0/0
  4006 ;;		On exit  : 0/0
  4007 ;;		Unchanged: 0/0
  4008 ;; Data sizes:     COMMON   BANK0   BANK1   BANK2   BANK3   BANK4   BANK5   BANK6   BANK7   BANK8   BANK9  BANK10  BANK1
      +1  BANK12  BANK13  BANK14  BANK15  BANK16  BANK17  BANK18  BANK19  BANK20  BANK21  BANK22  BANK23  BANK24  BANK25
  4009 ;;      Params:         0       0       0       0       0       0       0       0       0       0       0       0       
      +0       0       0       0       0       0       0       0       0       0       0       0       0       0       0
  4010 ;;      Locals:         0       0       0       0       0       0       0       0       0       0       0       0       
      +0       0       0       0       0       0       0       0       0       0       0       0       0       0       0
  4011 ;;      Temps:          0       0       0       0       0       0       0       0       0       0       0       0       
      +0       0       0       0       0       0       0       0       0       0       0       0       0       0       0
  4012 ;;      Totals:         0       0       0       0       0       0       0       0       0       0       0       0       
      +0       0       0       0       0       0       0       0       0       0       0       0       0       0       0
  4013 ;;Total ram usage:        0 bytes
  4014 ;; Hardware stack levels used:    1
  4015 ;; Hardware stack levels required when called:    7
  4016 ;; This function calls:
  4017 ;;		Nothing
  4018 ;; This function is called by:
  4019 ;;		_I2C1_Open
  4020 ;; This function uses a non-reentrant model
  4021 ;;
  4022                           
  4023                           
  4024                           ;psect for function _I2C1_MasterOpen
  4025  035E                     _I2C1_MasterOpen:	
  4026  035E                     l2030:	
  4027                           ;incstack = 0
  4028                           ; Regs used in _I2C1_MasterOpen: [wreg+status,2]
  4029                           
  4030                           
  4031                           ;mcc_generated_files/i2c1_master.c: 546:     if(!SSP1CON1bits.SSPEN)
  4032  035E  0024               	movlb	4	; select bank4
  4033  035F  1A95               	btfsc	21,5	;volatile
  4034  0360  2B62               	goto	u381
  4035  0361  2B63               	goto	u380
  4036  0362                     u381:	
  4037  0362  2B6B               	goto	l380
  4038  0363                     u380:	
  4039  0363                     l2032:	
  4040                           
  4041                           ;mcc_generated_files/i2c1_master.c: 547:     {;mcc_generated_files/i2c1_master.c: 548:  
      +                                 SSP1STAT = 0xC0;
  4042  0363  30C0               	movlw	192
  4043  0364  0094               	movwf	20	;volatile
  4044                           
  4045                           ;mcc_generated_files/i2c1_master.c: 549:         SSP1CON1 = 0x08;
  4046  0365  3008               	movlw	8
  4047  0366  0095               	movwf	21	;volatile
  4048  0367                     l2034:	
  4049                           
  4050                           ;mcc_generated_files/i2c1_master.c: 550:         SSP1CON2 = 0x00;
  4051  0367  0196               	clrf	22	;volatile
  4052  0368                     l2036:	
  4053                           
  4054                           ;mcc_generated_files/i2c1_master.c: 551:         SSP1ADD = 0x4F;
  4055  0368  304F               	movlw	79
  4056  0369  0092               	movwf	18	;volatile
  4057  036A                     l2038:	
  4058                           
  4059                           ;mcc_generated_files/i2c1_master.c: 552:         SSP1CON1bits.SSPEN = 1;
  4060  036A  1695               	bsf	21,5	;volatile
  4061  036B                     l380:	
  4062  036B  0008               	return
  4063  036C                     __end_of_I2C1_MasterOpen:	
  4064                           
  4065                           	psect	text14
  4066  0405                     __ptext14:	
  4067 ;; *************** function _I2C1_MasterEnableIrq *****************
  4068 ;; Defined at:
  4069 ;;		line 627 in file "mcc_generated_files/i2c1_master.c"
  4070 ;; Parameters:    Size  Location     Type
  4071 ;;		None
  4072 ;; Auto vars:     Size  Location     Type
  4073 ;;		None
  4074 ;; Return value:  Size  Location     Type
  4075 ;;                  1    wreg      void 
  4076 ;; Registers used:
  4077 ;;		None
  4078 ;; Tracked objects:
  4079 ;;		On entry : 0/0
  4080 ;;		On exit  : 0/0
  4081 ;;		Unchanged: 0/0
  4082 ;; Data sizes:     COMMON   BANK0   BANK1   BANK2   BANK3   BANK4   BANK5   BANK6   BANK7   BANK8   BANK9  BANK10  BANK1
      +1  BANK12  BANK13  BANK14  BANK15  BANK16  BANK17  BANK18  BANK19  BANK20  BANK21  BANK22  BANK23  BANK24  BANK25
  4083 ;;      Params:         0       0       0       0       0       0       0       0       0       0       0       0       
      +0       0       0       0       0       0       0       0       0       0       0       0       0       0       0
  4084 ;;      Locals:         0       0       0       0       0       0       0       0       0       0       0       0       
      +0       0       0       0       0       0       0       0       0       0       0       0       0       0       0
  4085 ;;      Temps:          0       0       0       0       0       0       0       0       0       0       0       0       
      +0       0       0       0       0       0       0       0       0       0       0       0       0       0       0
  4086 ;;      Totals:         0       0       0       0       0       0       0       0       0       0       0       0       
      +0       0       0       0       0       0       0       0       0       0       0       0       0       0       0
  4087 ;;Total ram usage:        0 bytes
  4088 ;; Hardware stack levels used:    1
  4089 ;; Hardware stack levels required when called:    7
  4090 ;; This function calls:
  4091 ;;		Nothing
  4092 ;; This function is called by:
  4093 ;;		_I2C1_Open
  4094 ;;		_I2C1_SetTimeOut
  4095 ;; This function uses a non-reentrant model
  4096 ;;
  4097                           
  4098                           
  4099                           ;psect for function _I2C1_MasterEnableIrq
  4100  0405                     _I2C1_MasterEnableIrq:	
  4101  0405                     l2042:	
  4102                           ;incstack = 0
  4103                           ; Regs used in _I2C1_MasterEnableIrq: []
  4104                           
  4105                           
  4106                           ;mcc_generated_files/i2c1_master.c: 629:     PIE1bits.SSP1IE = 1;
  4107  0405  0021               	movlb	1	; select bank1
  4108  0406  1591               	bsf	17,3	;volatile
  4109  0407                     l422:	
  4110  0407  0008               	return
  4111  0408                     __end_of_I2C1_MasterEnableIrq:	
  4112                           
  4113                           	psect	text15
  4114  03BE                     __ptext15:	
  4115 ;; *************** function _I2C1_MasterWrite *****************
  4116 ;; Defined at:
  4117 ;;		line 252 in file "mcc_generated_files/i2c1_master.c"
  4118 ;; Parameters:    Size  Location     Type
  4119 ;;		None
  4120 ;; Auto vars:     Size  Location     Type
  4121 ;;		None
  4122 ;; Return value:  Size  Location     Type
  4123 ;;                  1    wreg      enum E353
  4124 ;; Registers used:
  4125 ;;		wreg, status,2, status,0, pclath, cstack
  4126 ;; Tracked objects:
  4127 ;;		On entry : 0/0
  4128 ;;		On exit  : 0/0
  4129 ;;		Unchanged: 0/0
  4130 ;; Data sizes:     COMMON   BANK0   BANK1   BANK2   BANK3   BANK4   BANK5   BANK6   BANK7   BANK8   BANK9  BANK10  BANK1
      +1  BANK12  BANK13  BANK14  BANK15  BANK16  BANK17  BANK18  BANK19  BANK20  BANK21  BANK22  BANK23  BANK24  BANK25
  4131 ;;      Params:         0       0       0       0       0       0       0       0       0       0       0       0       
      +0       0       0       0       0       0       0       0       0       0       0       0       0       0       0
  4132 ;;      Locals:         0       0       0       0       0       0       0       0       0       0       0       0       
      +0       0       0       0       0       0       0       0       0       0       0       0       0       0       0
  4133 ;;      Temps:          0       0       0       0       0       0       0       0       0       0       0       0       
      +0       0       0       0       0       0       0       0       0       0       0       0       0       0       0
  4134 ;;      Totals:         0       0       0       0       0       0       0       0       0       0       0       0       
      +0       0       0       0       0       0       0       0       0       0       0       0       0       0       0
  4135 ;;Total ram usage:        0 bytes
  4136 ;; Hardware stack levels used:    1
  4137 ;; Hardware stack levels required when called:    9
  4138 ;; This function calls:
  4139 ;;		_I2C1_MasterOperation
  4140 ;; This function is called by:
  4141 ;;		_I2C1_WriteNBytes
  4142 ;;		_I2C1_Read1ByteRegister
  4143 ;;		_I2C1_Read2ByteRegister
  4144 ;;		_I2C1_Write1ByteRegister
  4145 ;;		_I2C1_Write2ByteRegister
  4146 ;;		_I2C1_ReadDataBlock
  4147 ;; This function uses a non-reentrant model
  4148 ;;
  4149                           
  4150                           
  4151                           ;psect for function _I2C1_MasterWrite
  4152  03BE                     _I2C1_MasterWrite:	
  4153  03BE                     l2272:	
  4154                           ;incstack = 0
  4155                           ; Regs used in _I2C1_MasterWrite: [wreg+status,2+status,0+pclath+cstack]
  4156                           
  4157                           
  4158                           ;mcc_generated_files/i2c1_master.c: 254:     return I2C1_MasterOperation(0);;	Return val
      +                          ue of _I2C1_MasterWrite is never used
  4159  03BE  3000               	movlw	0
  4160  03BF  3182  228C  3183   	fcall	_I2C1_MasterOperation
  4161  03C2                     l231:	
  4162  03C2  0008               	return
  4163  03C3                     __end_of_I2C1_MasterWrite:	
  4164                           
  4165                           	psect	text16
  4166  028C                     __ptext16:	
  4167 ;; *************** function _I2C1_MasterOperation *****************
  4168 ;; Defined at:
  4169 ;;		line 226 in file "mcc_generated_files/i2c1_master.c"
  4170 ;; Parameters:    Size  Location     Type
  4171 ;;  read            1    wreg     _Bool 
  4172 ;; Auto vars:     Size  Location     Type
  4173 ;;  read            1    4[BANK0 ] _Bool 
  4174 ;;  returnValue     1    5[BANK0 ] enum E353
  4175 ;; Return value:  Size  Location     Type
  4176 ;;                  1    wreg      enum E353
  4177 ;; Registers used:
  4178 ;;		wreg, status,2, status,0, pclath, cstack
  4179 ;; Tracked objects:
  4180 ;;		On entry : 0/0
  4181 ;;		On exit  : 0/0
  4182 ;;		Unchanged: 0/0
  4183 ;; Data sizes:     COMMON   BANK0   BANK1   BANK2   BANK3   BANK4   BANK5   BANK6   BANK7   BANK8   BANK9  BANK10  BANK1
      +1  BANK12  BANK13  BANK14  BANK15  BANK16  BANK17  BANK18  BANK19  BANK20  BANK21  BANK22  BANK23  BANK24  BANK25
  4184 ;;      Params:         0       0       0       0       0       0       0       0       0       0       0       0       
      +0       0       0       0       0       0       0       0       0       0       0       0       0       0       0
  4185 ;;      Locals:         0       2       0       0       0       0       0       0       0       0       0       0       
      +0       0       0       0       0       0       0       0       0       0       0       0       0       0       0
  4186 ;;      Temps:          0       1       0       0       0       0       0       0       0       0       0       0       
      +0       0       0       0       0       0       0       0       0       0       0       0       0       0       0
  4187 ;;      Totals:         0       3       0       0       0       0       0       0       0       0       0       0       
      +0       0       0       0       0       0       0       0       0       0       0       0       0       0       0
  4188 ;;Total ram usage:        3 bytes
  4189 ;; Hardware stack levels used:    1
  4190 ;; Hardware stack levels required when called:    8
  4191 ;; This function calls:
  4192 ;;		_I2C1_MasterStart
  4193 ;; This function is called by:
  4194 ;;		_I2C1_MasterWrite
  4195 ;;		_I2C1_MasterRead
  4196 ;; This function uses a non-reentrant model
  4197 ;;
  4198                           
  4199                           
  4200                           ;psect for function _I2C1_MasterOperation
  4201  028C                     _I2C1_MasterOperation:	
  4202                           
  4203                           ;incstack = 0
  4204                           ; Regs used in _I2C1_MasterOperation: [wreg+status,2+status,0+pclath+cstack]
  4205                           ;I2C1_MasterOperation@read stored from wreg
  4206  028C  0020               	movlb	0	; select bank0
  4207  028D  00C4               	movwf	I2C1_MasterOperation@read
  4208  028E                     l2048:	
  4209                           
  4210                           ;mcc_generated_files/i2c1_master.c: 226: i2c1_error_t I2C1_MasterOperation(_Bool read);m
      +                          cc_generated_files/i2c1_master.c: 227: {;mcc_generated_files/i2c1_master.c: 228:     i2c
      +                          1_error_t returnValue = I2C1_BUSY;
  4211  028E  01C5               	clrf	I2C1_MasterOperation@returnValue
  4212  028F  0AC5               	incf	I2C1_MasterOperation@returnValue,f
  4213                           
  4214                           ;mcc_generated_files/i2c1_master.c: 229:     if(!I2C1_Status.busy)
  4215  0290  18BC               	btfsc	_I2C1_Status+28,1
  4216  0291  2A93               	goto	u391
  4217  0292  2A94               	goto	u390
  4218  0293                     u391:	
  4219  0293  2AA5               	goto	l2062
  4220  0294                     u390:	
  4221  0294                     l2050:	
  4222                           
  4223                           ;mcc_generated_files/i2c1_master.c: 230:     {;mcc_generated_files/i2c1_master.c: 231:  
      +                                 I2C1_Status.busy = 1;
  4224  0294  14BC               	bsf	_I2C1_Status+28,1
  4225  0295                     l2052:	
  4226                           
  4227                           ;mcc_generated_files/i2c1_master.c: 232:         returnValue = I2C1_NOERR;
  4228  0295  01C5               	clrf	I2C1_MasterOperation@returnValue
  4229  0296                     l2054:	
  4230                           
  4231                           ;mcc_generated_files/i2c1_master.c: 234:         if(read)
  4232  0296  0844               	movf	I2C1_MasterOperation@read,w
  4233  0297  1903               	btfsc	3,2
  4234  0298  2A9A               	goto	u401
  4235  0299  2A9B               	goto	u400
  4236  029A                     u401:	
  4237  029A  2A9E               	goto	l2058
  4238  029B                     u400:	
  4239  029B                     l2056:	
  4240                           
  4241                           ;mcc_generated_files/i2c1_master.c: 235:         {;mcc_generated_files/i2c1_master.c: 23
      +                          6:             I2C1_Status.state = I2C1_SEND_ADR_READ;
  4242  029B  01BA               	clrf	_I2C1_Status+26
  4243  029C  0ABA               	incf	_I2C1_Status+26,f
  4244                           
  4245                           ;mcc_generated_files/i2c1_master.c: 237:         }
  4246  029D  2AA2               	goto	l2060
  4247  029E                     l2058:	
  4248                           
  4249                           ;mcc_generated_files/i2c1_master.c: 239:         {;mcc_generated_files/i2c1_master.c: 24
      +                          0:             I2C1_Status.state = I2C1_SEND_ADR_WRITE;
  4250  029E  3002               	movlw	2
  4251  029F  00C3               	movwf	??_I2C1_MasterOperation
  4252  02A0  0843               	movf	??_I2C1_MasterOperation,w
  4253  02A1  00BA               	movwf	_I2C1_Status+26
  4254  02A2                     l2060:	
  4255                           
  4256                           ;mcc_generated_files/i2c1_master.c: 242:         I2C1_MasterStart();
  4257  02A2  3184  2408  3182   	fcall	_I2C1_MasterStart
  4258  02A5                     l2062:	
  4259                           
  4260                           ;mcc_generated_files/i2c1_master.c: 244:     return returnValue;
  4261  02A5  0020               	movlb	0	; select bank0
  4262  02A6  0845               	movf	I2C1_MasterOperation@returnValue,w
  4263  02A7                     l225:	
  4264  02A7  0008               	return
  4265  02A8                     __end_of_I2C1_MasterOperation:	
  4266                           
  4267                           	psect	text17
  4268  0408                     __ptext17:	
  4269 ;; *************** function _I2C1_MasterStart *****************
  4270 ;; Defined at:
  4271 ;;		line 589 in file "mcc_generated_files/i2c1_master.c"
  4272 ;; Parameters:    Size  Location     Type
  4273 ;;		None
  4274 ;; Auto vars:     Size  Location     Type
  4275 ;;		None
  4276 ;; Return value:  Size  Location     Type
  4277 ;;                  1    wreg      void 
  4278 ;; Registers used:
  4279 ;;		None
  4280 ;; Tracked objects:
  4281 ;;		On entry : 0/0
  4282 ;;		On exit  : 0/0
  4283 ;;		Unchanged: 0/0
  4284 ;; Data sizes:     COMMON   BANK0   BANK1   BANK2   BANK3   BANK4   BANK5   BANK6   BANK7   BANK8   BANK9  BANK10  BANK1
      +1  BANK12  BANK13  BANK14  BANK15  BANK16  BANK17  BANK18  BANK19  BANK20  BANK21  BANK22  BANK23  BANK24  BANK25
  4285 ;;      Params:         0       0       0       0       0       0       0       0       0       0       0       0       
      +0       0       0       0       0       0       0       0       0       0       0       0       0       0       0
  4286 ;;      Locals:         0       0       0       0       0       0       0       0       0       0       0       0       
      +0       0       0       0       0       0       0       0       0       0       0       0       0       0       0
  4287 ;;      Temps:          0       0       0       0       0       0       0       0       0       0       0       0       
      +0       0       0       0       0       0       0       0       0       0       0       0       0       0       0
  4288 ;;      Totals:         0       0       0       0       0       0       0       0       0       0       0       0       
      +0       0       0       0       0       0       0       0       0       0       0       0       0       0       0
  4289 ;;Total ram usage:        0 bytes
  4290 ;; Hardware stack levels used:    1
  4291 ;; Hardware stack levels required when called:    7
  4292 ;; This function calls:
  4293 ;;		Nothing
  4294 ;; This function is called by:
  4295 ;;		_I2C1_MasterOperation
  4296 ;; This function uses a non-reentrant model
  4297 ;;
  4298                           
  4299                           
  4300                           ;psect for function _I2C1_MasterStart
  4301  0408                     _I2C1_MasterStart:	
  4302  0408                     l1964:	
  4303                           ;incstack = 0
  4304                           ; Regs used in _I2C1_MasterStart: []
  4305                           
  4306                           
  4307                           ;mcc_generated_files/i2c1_master.c: 591:     SSP1CON2bits.SEN = 1;
  4308  0408  0024               	movlb	4	; select bank4
  4309  0409  1416               	bsf	22,0	;volatile
  4310  040A                     l401:	
  4311  040A  0008               	return
  4312  040B                     __end_of_I2C1_MasterStart:	
  4313                           
  4314                           	psect	text18
  4315  02A8                     __ptext18:	
  4316 ;; *************** function _I2C1_Close *****************
  4317 ;; Defined at:
  4318 ;;		line 211 in file "mcc_generated_files/i2c1_master.c"
  4319 ;; Parameters:    Size  Location     Type
  4320 ;;		None
  4321 ;; Auto vars:     Size  Location     Type
  4322 ;;  returnValue     1    4[BANK0 ] enum E353
  4323 ;; Return value:  Size  Location     Type
  4324 ;;                  1    wreg      enum E353
  4325 ;; Registers used:
  4326 ;;		wreg, status,2, status,0, pclath, cstack
  4327 ;; Tracked objects:
  4328 ;;		On entry : 0/0
  4329 ;;		On exit  : 0/0
  4330 ;;		Unchanged: 0/0
  4331 ;; Data sizes:     COMMON   BANK0   BANK1   BANK2   BANK3   BANK4   BANK5   BANK6   BANK7   BANK8   BANK9  BANK10  BANK1
      +1  BANK12  BANK13  BANK14  BANK15  BANK16  BANK17  BANK18  BANK19  BANK20  BANK21  BANK22  BANK23  BANK24  BANK25
  4332 ;;      Params:         0       0       0       0       0       0       0       0       0       0       0       0       
      +0       0       0       0       0       0       0       0       0       0       0       0       0       0       0
  4333 ;;      Locals:         0       1       0       0       0       0       0       0       0       0       0       0       
      +0       0       0       0       0       0       0       0       0       0       0       0       0       0       0
  4334 ;;      Temps:          0       1       0       0       0       0       0       0       0       0       0       0       
      +0       0       0       0       0       0       0       0       0       0       0       0       0       0       0
  4335 ;;      Totals:         0       2       0       0       0       0       0       0       0       0       0       0       
      +0       0       0       0       0       0       0       0       0       0       0       0       0       0       0
  4336 ;;Total ram usage:        2 bytes
  4337 ;; Hardware stack levels used:    1
  4338 ;; Hardware stack levels required when called:    8
  4339 ;; This function calls:
  4340 ;;		_I2C1_MasterClearIrq
  4341 ;;		_I2C1_MasterClose
  4342 ;;		_I2C1_MasterDisableIrq
  4343 ;; This function is called by:
  4344 ;;		_I2C1_WriteNBytes
  4345 ;;		_I2C1_Read1ByteRegister
  4346 ;;		_I2C1_Read2ByteRegister
  4347 ;;		_I2C1_Write1ByteRegister
  4348 ;;		_I2C1_Write2ByteRegister
  4349 ;;		_I2C1_ReadNBytes
  4350 ;;		_I2C1_ReadDataBlock
  4351 ;; This function uses a non-reentrant model
  4352 ;;
  4353                           
  4354                           
  4355                           ;psect for function _I2C1_Close
  4356  02A8                     _I2C1_Close:	
  4357  02A8                     l2276:	
  4358                           ;incstack = 0
  4359                           ; Regs used in _I2C1_Close: [wreg+status,2+status,0+pclath+cstack]
  4360                           
  4361                           
  4362                           ;mcc_generated_files/i2c1_master.c: 213:     i2c1_error_t returnValue = I2C1_BUSY;
  4363  02A8  0020               	movlb	0	; select bank0
  4364  02A9  01C4               	clrf	I2C1_Close@returnValue
  4365  02AA  0AC4               	incf	I2C1_Close@returnValue,f
  4366                           
  4367                           ;mcc_generated_files/i2c1_master.c: 214:     if(!I2C1_Status.busy)
  4368  02AB  18BC               	btfsc	_I2C1_Status+28,1
  4369  02AC  2AAE               	goto	u471
  4370  02AD  2AAF               	goto	u470
  4371  02AE                     u471:	
  4372  02AE  2AC2               	goto	l2290
  4373  02AF                     u470:	
  4374  02AF                     l2278:	
  4375                           
  4376                           ;mcc_generated_files/i2c1_master.c: 215:     {;mcc_generated_files/i2c1_master.c: 216:  
      +                                 I2C1_Status.inUse = 0;
  4377  02AF  113C               	bcf	_I2C1_Status+28,2
  4378  02B0                     l2280:	
  4379                           
  4380                           ;mcc_generated_files/i2c1_master.c: 217:         I2C1_Status.address = 0xff;
  4381  02B0  30FF               	movlw	255
  4382  02B1  00C3               	movwf	??_I2C1_Close
  4383  02B2  0843               	movf	??_I2C1_Close,w
  4384  02B3  00B6               	movwf	_I2C1_Status+22
  4385  02B4                     l2282:	
  4386                           
  4387                           ;mcc_generated_files/i2c1_master.c: 218:         I2C1_MasterClearIrq();
  4388  02B4  3184  2411  3182   	fcall	_I2C1_MasterClearIrq
  4389  02B7                     l2284:	
  4390                           
  4391                           ;mcc_generated_files/i2c1_master.c: 219:         I2C1_MasterDisableIrq();
  4392  02B7  3184  240B  3182   	fcall	_I2C1_MasterDisableIrq
  4393  02BA                     l2286:	
  4394                           
  4395                           ;mcc_generated_files/i2c1_master.c: 220:         I2C1_MasterClose();
  4396  02BA  3184  240E  3182   	fcall	_I2C1_MasterClose
  4397  02BD                     l2288:	
  4398                           
  4399                           ;mcc_generated_files/i2c1_master.c: 221:         returnValue = I2C1_Status.error;
  4400  02BD  0020               	movlb	0	; select bank0
  4401  02BE  083B               	movf	_I2C1_Status+27,w
  4402  02BF  00C3               	movwf	??_I2C1_Close
  4403  02C0  0843               	movf	??_I2C1_Close,w
  4404  02C1  00C4               	movwf	I2C1_Close@returnValue
  4405  02C2                     l2290:	
  4406                           
  4407                           ;mcc_generated_files/i2c1_master.c: 223:     return returnValue;
  4408  02C2  0844               	movf	I2C1_Close@returnValue,w
  4409  02C3                     l219:	
  4410  02C3  0008               	return
  4411  02C4                     __end_of_I2C1_Close:	
  4412                           
  4413                           	psect	text19
  4414  040B                     __ptext19:	
  4415 ;; *************** function _I2C1_MasterDisableIrq *****************
  4416 ;; Defined at:
  4417 ;;		line 637 in file "mcc_generated_files/i2c1_master.c"
  4418 ;; Parameters:    Size  Location     Type
  4419 ;;		None
  4420 ;; Auto vars:     Size  Location     Type
  4421 ;;		None
  4422 ;; Return value:  Size  Location     Type
  4423 ;;                  1    wreg      void 
  4424 ;; Registers used:
  4425 ;;		None
  4426 ;; Tracked objects:
  4427 ;;		On entry : 0/0
  4428 ;;		On exit  : 0/0
  4429 ;;		Unchanged: 0/0
  4430 ;; Data sizes:     COMMON   BANK0   BANK1   BANK2   BANK3   BANK4   BANK5   BANK6   BANK7   BANK8   BANK9  BANK10  BANK1
      +1  BANK12  BANK13  BANK14  BANK15  BANK16  BANK17  BANK18  BANK19  BANK20  BANK21  BANK22  BANK23  BANK24  BANK25
  4431 ;;      Params:         0       0       0       0       0       0       0       0       0       0       0       0       
      +0       0       0       0       0       0       0       0       0       0       0       0       0       0       0
  4432 ;;      Locals:         0       0       0       0       0       0       0       0       0       0       0       0       
      +0       0       0       0       0       0       0       0       0       0       0       0       0       0       0
  4433 ;;      Temps:          0       0       0       0       0       0       0       0       0       0       0       0       
      +0       0       0       0       0       0       0       0       0       0       0       0       0       0       0
  4434 ;;      Totals:         0       0       0       0       0       0       0       0       0       0       0       0       
      +0       0       0       0       0       0       0       0       0       0       0       0       0       0       0
  4435 ;;Total ram usage:        0 bytes
  4436 ;; Hardware stack levels used:    1
  4437 ;; Hardware stack levels required when called:    7
  4438 ;; This function calls:
  4439 ;;		Nothing
  4440 ;; This function is called by:
  4441 ;;		_I2C1_Close
  4442 ;;		_I2C1_SetTimeOut
  4443 ;; This function uses a non-reentrant model
  4444 ;;
  4445                           
  4446                           
  4447                           ;psect for function _I2C1_MasterDisableIrq
  4448  040B                     _I2C1_MasterDisableIrq:	
  4449  040B                     l2044:	
  4450                           ;incstack = 0
  4451                           ; Regs used in _I2C1_MasterDisableIrq: []
  4452                           
  4453                           
  4454                           ;mcc_generated_files/i2c1_master.c: 639:     PIE1bits.SSP1IE = 0;
  4455  040B  0021               	movlb	1	; select bank1
  4456  040C  1191               	bcf	17,3	;volatile
  4457  040D                     l428:	
  4458  040D  0008               	return
  4459  040E                     __end_of_I2C1_MasterDisableIrq:	
  4460                           
  4461                           	psect	text20
  4462  040E                     __ptext20:	
  4463 ;; *************** function _I2C1_MasterClose *****************
  4464 ;; Defined at:
  4465 ;;		line 558 in file "mcc_generated_files/i2c1_master.c"
  4466 ;; Parameters:    Size  Location     Type
  4467 ;;		None
  4468 ;; Auto vars:     Size  Location     Type
  4469 ;;		None
  4470 ;; Return value:  Size  Location     Type
  4471 ;;                  1    wreg      void 
  4472 ;; Registers used:
  4473 ;;		None
  4474 ;; Tracked objects:
  4475 ;;		On entry : 0/0
  4476 ;;		On exit  : 0/0
  4477 ;;		Unchanged: 0/0
  4478 ;; Data sizes:     COMMON   BANK0   BANK1   BANK2   BANK3   BANK4   BANK5   BANK6   BANK7   BANK8   BANK9  BANK10  BANK1
      +1  BANK12  BANK13  BANK14  BANK15  BANK16  BANK17  BANK18  BANK19  BANK20  BANK21  BANK22  BANK23  BANK24  BANK25
  4479 ;;      Params:         0       0       0       0       0       0       0       0       0       0       0       0       
      +0       0       0       0       0       0       0       0       0       0       0       0       0       0       0
  4480 ;;      Locals:         0       0       0       0       0       0       0       0       0       0       0       0       
      +0       0       0       0       0       0       0       0       0       0       0       0       0       0       0
  4481 ;;      Temps:          0       0       0       0       0       0       0       0       0       0       0       0       
      +0       0       0       0       0       0       0       0       0       0       0       0       0       0       0
  4482 ;;      Totals:         0       0       0       0       0       0       0       0       0       0       0       0       
      +0       0       0       0       0       0       0       0       0       0       0       0       0       0       0
  4483 ;;Total ram usage:        0 bytes
  4484 ;; Hardware stack levels used:    1
  4485 ;; Hardware stack levels required when called:    7
  4486 ;; This function calls:
  4487 ;;		Nothing
  4488 ;; This function is called by:
  4489 ;;		_I2C1_Close
  4490 ;; This function uses a non-reentrant model
  4491 ;;
  4492                           
  4493                           
  4494                           ;psect for function _I2C1_MasterClose
  4495  040E                     _I2C1_MasterClose:	
  4496  040E                     l2046:	
  4497                           ;incstack = 0
  4498                           ; Regs used in _I2C1_MasterClose: []
  4499                           
  4500                           
  4501                           ;mcc_generated_files/i2c1_master.c: 561:     SSP1CON1bits.SSPEN = 0;
  4502  040E  0024               	movlb	4	; select bank4
  4503  040F  1295               	bcf	21,5	;volatile
  4504  0410                     l383:	
  4505  0410  0008               	return
  4506  0411                     __end_of_I2C1_MasterClose:	
  4507                           
  4508                           	psect	text21
  4509  0411                     __ptext21:	
  4510 ;; *************** function _I2C1_MasterClearIrq *****************
  4511 ;; Defined at:
  4512 ;;		line 642 in file "mcc_generated_files/i2c1_master.c"
  4513 ;; Parameters:    Size  Location     Type
  4514 ;;		None
  4515 ;; Auto vars:     Size  Location     Type
  4516 ;;		None
  4517 ;; Return value:  Size  Location     Type
  4518 ;;                  1    wreg      void 
  4519 ;; Registers used:
  4520 ;;		None
  4521 ;; Tracked objects:
  4522 ;;		On entry : 0/0
  4523 ;;		On exit  : 0/0
  4524 ;;		Unchanged: 0/0
  4525 ;; Data sizes:     COMMON   BANK0   BANK1   BANK2   BANK3   BANK4   BANK5   BANK6   BANK7   BANK8   BANK9  BANK10  BANK1
      +1  BANK12  BANK13  BANK14  BANK15  BANK16  BANK17  BANK18  BANK19  BANK20  BANK21  BANK22  BANK23  BANK24  BANK25
  4526 ;;      Params:         0       0       0       0       0       0       0       0       0       0       0       0       
      +0       0       0       0       0       0       0       0       0       0       0       0       0       0       0
  4527 ;;      Locals:         0       0       0       0       0       0       0       0       0       0       0       0       
      +0       0       0       0       0       0       0       0       0       0       0       0       0       0       0
  4528 ;;      Temps:          0       0       0       0       0       0       0       0       0       0       0       0       
      +0       0       0       0       0       0       0       0       0       0       0       0       0       0       0
  4529 ;;      Totals:         0       0       0       0       0       0       0       0       0       0       0       0       
      +0       0       0       0       0       0       0       0       0       0       0       0       0       0       0
  4530 ;;Total ram usage:        0 bytes
  4531 ;; Hardware stack levels used:    1
  4532 ;; Hardware stack levels required when called:    7
  4533 ;; This function calls:
  4534 ;;		Nothing
  4535 ;; This function is called by:
  4536 ;;		_I2C1_Open
  4537 ;;		_I2C1_Close
  4538 ;; This function uses a non-reentrant model
  4539 ;;
  4540                           
  4541                           
  4542                           ;psect for function _I2C1_MasterClearIrq
  4543  0411                     _I2C1_MasterClearIrq:	
  4544  0411                     l2028:	
  4545                           ;incstack = 0
  4546                           ; Regs used in _I2C1_MasterClearIrq: []
  4547                           
  4548                           
  4549                           ;mcc_generated_files/i2c1_master.c: 644:     PIR1bits.SSP1IF = 0;
  4550  0411  0020               	movlb	0	; select bank0
  4551  0412  1191               	bcf	17,3	;volatile
  4552  0413                     l431:	
  4553  0413  0008               	return
  4554  0414                     __end_of_I2C1_MasterClearIrq:	
  4555                           
  4556                           	psect	intentry
  4557  0004                     __pintentry:	
  4558 ;; *************** function _INTERRUPT_InterruptManager *****************
  4559 ;; Defined at:
  4560 ;;		line 52 in file "mcc_generated_files/interrupt_manager.c"
  4561 ;; Parameters:    Size  Location     Type
  4562 ;;		None
  4563 ;; Auto vars:     Size  Location     Type
  4564 ;;		None
  4565 ;; Return value:  Size  Location     Type
  4566 ;;                  1    wreg      void 
  4567 ;; Registers used:
  4568 ;;		wreg, fsr0l, fsr0h, fsr1l, fsr1h, status,2, status,0, pclath, cstack
  4569 ;; Tracked objects:
  4570 ;;		On entry : 0/0
  4571 ;;		On exit  : 0/0
  4572 ;;		Unchanged: 0/0
  4573 ;; Data sizes:     COMMON   BANK0   BANK1   BANK2   BANK3   BANK4   BANK5   BANK6   BANK7   BANK8   BANK9  BANK10  BANK1
      +1  BANK12  BANK13  BANK14  BANK15  BANK16  BANK17  BANK18  BANK19  BANK20  BANK21  BANK22  BANK23  BANK24  BANK25
  4574 ;;      Params:         0       0       0       0       0       0       0       0       0       0       0       0       
      +0       0       0       0       0       0       0       0       0       0       0       0       0       0       0
  4575 ;;      Locals:         0       0       0       0       0       0       0       0       0       0       0       0       
      +0       0       0       0       0       0       0       0       0       0       0       0       0       0       0
  4576 ;;      Temps:          0       0       0       0       0       0       0       0       0       0       0       0       
      +0       0       0       0       0       0       0       0       0       0       0       0       0       0       0
  4577 ;;      Totals:         0       0       0       0       0       0       0       0       0       0       0       0       
      +0       0       0       0       0       0       0       0       0       0       0       0       0       0       0
  4578 ;;Total ram usage:        0 bytes
  4579 ;; Hardware stack levels used:    1
  4580 ;; Hardware stack levels required when called:    6
  4581 ;; This function calls:
  4582 ;;		Absolute function
  4583 ;;		_I2C1_MasterIsr
  4584 ;; This function is called by:
  4585 ;;		Interrupt level 1
  4586 ;; This function uses a non-reentrant model
  4587 ;;
  4588                           
  4589  0004                     _INTERRUPT_InterruptManager:	
  4590                           
  4591                           ;incstack = 0
  4592  0004  147E               	bsf	int$flags,0	;set compiler interrupt flag (level 1)
  4593                           
  4594                           ; Regs used in _INTERRUPT_InterruptManager: [wreg-fsr1h+status,2+status,0+pclath+cstack]
  4595  0005  3180               	pagesel	$
  4596  0006                     i1l2502:	
  4597                           
  4598                           ;mcc_generated_files/interrupt_manager.c: 55:     if(INTCONbits.PEIE == 1)
  4599  0006  1F0B               	btfss	11,6	;volatile
  4600  0007  2809               	goto	u65_21
  4601  0008  280A               	goto	u65_20
  4602  0009                     u65_21:	
  4603  0009  2825               	goto	i1l584
  4604  000A                     u65_20:	
  4605  000A                     i1l2504:	
  4606                           
  4607                           ;mcc_generated_files/interrupt_manager.c: 56:     {;mcc_generated_files/interrupt_manage
      +                          r.c: 57:         if(PIE1bits.BCL1IE == 1 && PIR1bits.BCL1IF == 1)
  4608  000A  0021               	movlb	1	; select bank1
  4609  000B  1D11               	btfss	17,2	;volatile
  4610  000C  280E               	goto	u66_21
  4611  000D  280F               	goto	u66_20
  4612  000E                     u66_21:	
  4613  000E  281A               	goto	i1l579
  4614  000F                     u66_20:	
  4615  000F                     i1l2506:	
  4616  000F  0020               	movlb	0	; select bank0
  4617  0010  1D11               	btfss	17,2	;volatile
  4618  0011  2813               	goto	u67_21
  4619  0012  2814               	goto	u67_20
  4620  0013                     u67_21:	
  4621  0013  281A               	goto	i1l579
  4622  0014                     u67_20:	
  4623  0014                     i1l2508:	
  4624                           
  4625                           ;mcc_generated_files/interrupt_manager.c: 58:         {;mcc_generated_files/interrupt_ma
      +                          nager.c: 59:             MSSP1_InterruptHandler();
  4626  0014  083E               	movf	_MSSP1_InterruptHandler+1,w
  4627  0015  008A               	movwf	10
  4628  0016  083D               	movf	_MSSP1_InterruptHandler,w
  4629  0017  000A               	callw
  4630  0018  3180               	pagesel	$
  4631                           
  4632                           ;mcc_generated_files/interrupt_manager.c: 60:         }
  4633  0019  2825               	goto	i1l584
  4634  001A                     i1l579:	
  4635                           ;mcc_generated_files/interrupt_manager.c: 61:         else if(PIE1bits.SSP1IE == 1 && PI
      +                          R1bits.SSP1IF == 1)
  4636                           
  4637  001A  0021               	movlb	1	; select bank1
  4638  001B  1D91               	btfss	17,3	;volatile
  4639  001C  281E               	goto	u68_21
  4640  001D  281F               	goto	u68_20
  4641  001E                     u68_21:	
  4642  001E  2825               	goto	i1l580
  4643  001F                     u68_20:	
  4644  001F                     i1l2510:	
  4645  001F  0020               	movlb	0	; select bank0
  4646  0020  1D91               	btfss	17,3	;volatile
  4647  0021  2823               	goto	u69_21
  4648  0022  2824               	goto	u69_20
  4649  0023                     u69_21:	
  4650  0023  2825               	goto	i1l580
  4651  0024                     u69_20:	
  4652  0024  2814               	goto	i1l2508
  4653  0025                     i1l580:	
  4654  0025                     i1l584:	
  4655                           ;mcc_generated_files/interrupt_manager.c: 69:     }
  4656                           
  4657  0025  107E               	bcf	int$flags,0	;clear compiler interrupt flag (level 1)
  4658  0026  0009               	retfie
  4659  0027                     __end_of_INTERRUPT_InterruptManager:	
  4660                           
  4661                           	psect	text23
  4662  03F9                     __ptext23:	
  4663 ;; *************** function _I2C1_MasterIsr *****************
  4664 ;; Defined at:
  4665 ;;		line 318 in file "mcc_generated_files/i2c1_master.c"
  4666 ;; Parameters:    Size  Location     Type
  4667 ;;		None
  4668 ;; Auto vars:     Size  Location     Type
  4669 ;;		None
  4670 ;; Return value:  Size  Location     Type
  4671 ;;                  1    wreg      void 
  4672 ;; Registers used:
  4673 ;;		wreg, fsr0l, fsr0h, fsr1l, fsr1h, status,2, status,0, pclath, cstack
  4674 ;; Tracked objects:
  4675 ;;		On entry : 0/0
  4676 ;;		On exit  : 0/0
  4677 ;;		Unchanged: 0/0
  4678 ;; Data sizes:     COMMON   BANK0   BANK1   BANK2   BANK3   BANK4   BANK5   BANK6   BANK7   BANK8   BANK9  BANK10  BANK1
      +1  BANK12  BANK13  BANK14  BANK15  BANK16  BANK17  BANK18  BANK19  BANK20  BANK21  BANK22  BANK23  BANK24  BANK25
  4679 ;;      Params:         0       0       0       0       0       0       0       0       0       0       0       0       
      +0       0       0       0       0       0       0       0       0       0       0       0       0       0       0
  4680 ;;      Locals:         0       0       0       0       0       0       0       0       0       0       0       0       
      +0       0       0       0       0       0       0       0       0       0       0       0       0       0       0
  4681 ;;      Temps:          0       0       0       0       0       0       0       0       0       0       0       0       
      +0       0       0       0       0       0       0       0       0       0       0       0       0       0       0
  4682 ;;      Totals:         0       0       0       0       0       0       0       0       0       0       0       0       
      +0       0       0       0       0       0       0       0       0       0       0       0       0       0       0
  4683 ;;Total ram usage:        0 bytes
  4684 ;; Hardware stack levels used:    1
  4685 ;; Hardware stack levels required when called:    5
  4686 ;; This function calls:
  4687 ;;		_I2C1_MasterFsm
  4688 ;; This function is called by:
  4689 ;;		_I2C1_Open
  4690 ;;		_INTERRUPT_InterruptManager
  4691 ;; This function uses a non-reentrant model
  4692 ;;
  4693                           
  4694                           
  4695                           ;psect for function _I2C1_MasterIsr
  4696  03F9                     _I2C1_MasterIsr:	
  4697  03F9                     i1l2370:	
  4698                           ;incstack = 0
  4699                           ; Regs used in _I2C1_MasterIsr: [wreg-fsr1h+status,2+status,0+pclath+cstack]
  4700                           
  4701                           
  4702                           ;mcc_generated_files/i2c1_master.c: 320:     I2C1_MasterFsm();
  4703  03F9  3181  21A4  3183   	fcall	_I2C1_MasterFsm
  4704  03FC                     i1l264:	
  4705  03FC  0008               	return
  4706  03FD                     __end_of_I2C1_MasterIsr:	
  4707                           
  4708                           	psect	text24
  4709  01A4                     __ptext24:	
  4710 ;; *************** function _I2C1_MasterFsm *****************
  4711 ;; Defined at:
  4712 ;;		line 323 in file "mcc_generated_files/i2c1_master.c"
  4713 ;; Parameters:    Size  Location     Type
  4714 ;;		None
  4715 ;; Auto vars:     Size  Location     Type
  4716 ;;		None
  4717 ;; Return value:  Size  Location     Type
  4718 ;;                  1    wreg      void 
  4719 ;; Registers used:
  4720 ;;		wreg, fsr0l, fsr0h, fsr1l, fsr1h, status,2, status,0, pclath, cstack
  4721 ;; Tracked objects:
  4722 ;;		On entry : 0/0
  4723 ;;		On exit  : 0/0
  4724 ;;		Unchanged: 0/0
  4725 ;; Data sizes:     COMMON   BANK0   BANK1   BANK2   BANK3   BANK4   BANK5   BANK6   BANK7   BANK8   BANK9  BANK10  BANK1
      +1  BANK12  BANK13  BANK14  BANK15  BANK16  BANK17  BANK18  BANK19  BANK20  BANK21  BANK22  BANK23  BANK24  BANK25
  4726 ;;      Params:         0       0       0       0       0       0       0       0       0       0       0       0       
      +0       0       0       0       0       0       0       0       0       0       0       0       0       0       0
  4727 ;;      Locals:         0       0       0       0       0       0       0       0       0       0       0       0       
      +0       0       0       0       0       0       0       0       0       0       0       0       0       0       0
  4728 ;;      Temps:          0       3       0       0       0       0       0       0       0       0       0       0       
      +0       0       0       0       0       0       0       0       0       0       0       0       0       0       0
  4729 ;;      Totals:         0       3       0       0       0       0       0       0       0       0       0       0       
      +0       0       0       0       0       0       0       0       0       0       0       0       0       0       0
  4730 ;;Total ram usage:        3 bytes
  4731 ;; Hardware stack levels used:    1
  4732 ;; Hardware stack levels required when called:    4
  4733 ;; This function calls:
  4734 ;;		_I2C1_DO_ADDRESS_NACK
  4735 ;;		_I2C1_DO_IDLE
  4736 ;;		_I2C1_DO_RCEN
  4737 ;;		_I2C1_DO_RESET
  4738 ;;		_I2C1_DO_RX
  4739 ;;		_I2C1_DO_RX_ACK
  4740 ;;		_I2C1_DO_RX_NACK_RESTART
  4741 ;;		_I2C1_DO_RX_NACK_STOP
  4742 ;;		_I2C1_DO_SEND_ADR_READ
  4743 ;;		_I2C1_DO_SEND_ADR_WRITE
  4744 ;;		_I2C1_DO_SEND_RESTART
  4745 ;;		_I2C1_DO_SEND_RESTART_READ
  4746 ;;		_I2C1_DO_SEND_RESTART_WRITE
  4747 ;;		_I2C1_DO_SEND_STOP
  4748 ;;		_I2C1_DO_TX
  4749 ;;		_I2C1_DO_TX_EMPTY
  4750 ;;		_I2C1_MasterIsNack
  4751 ;;		i1_I2C1_MasterClearIrq
  4752 ;; This function is called by:
  4753 ;;		_I2C1_MasterIsr
  4754 ;; This function uses a non-reentrant model
  4755 ;;
  4756                           
  4757                           
  4758                           ;psect for function _I2C1_MasterFsm
  4759  01A4                     _I2C1_MasterFsm:	
  4760  01A4                     i1l2302:	
  4761                           ;incstack = 0
  4762                           ; Regs used in _I2C1_MasterFsm: [wreg-fsr1h+status,2+status,0+pclath+cstack]
  4763                           
  4764                           
  4765                           ;mcc_generated_files/i2c1_master.c: 325:     I2C1_MasterClearIrq();
  4766  01A4  3184  2414  3181   	fcall	i1_I2C1_MasterClearIrq
  4767  01A7                     i1l2304:	
  4768                           
  4769                           ;mcc_generated_files/i2c1_master.c: 327:     if(I2C1_Status.addressNackCheck && I2C1_Mas
      +                          terIsNack())
  4770  01A7  0020               	movlb	0	; select bank0
  4771  01A8  1C3C               	btfss	_I2C1_Status+28,0
  4772  01A9  29AB               	goto	u48_21
  4773  01AA  29AC               	goto	u48_20
  4774  01AB                     u48_21:	
  4775  01AB  29B9               	goto	i1l2310
  4776  01AC                     u48_20:	
  4777  01AC                     i1l2306:	
  4778  01AC  3183  23B8  3181   	fcall	_I2C1_MasterIsNack
  4779  01AF  3A00               	xorlw	0
  4780  01B0  1903               	skipnz
  4781  01B1  29B3               	goto	u49_21
  4782  01B2  29B4               	goto	u49_20
  4783  01B3                     u49_21:	
  4784  01B3  29B9               	goto	i1l2310
  4785  01B4                     u49_20:	
  4786  01B4                     i1l2308:	
  4787                           
  4788                           ;mcc_generated_files/i2c1_master.c: 328:     {;mcc_generated_files/i2c1_master.c: 329:  
      +                                 I2C1_Status.state = I2C1_ADDRESS_NACK;
  4789  01B4  300F               	movlw	15
  4790  01B5  0020               	movlb	0	; select bank0
  4791  01B6  00C0               	movwf	??_I2C1_MasterFsm
  4792  01B7  0840               	movf	??_I2C1_MasterFsm,w
  4793  01B8  00BA               	movwf	_I2C1_Status+26
  4794  01B9                     i1l2310:	
  4795                           
  4796                           ;mcc_generated_files/i2c1_master.c: 331:     I2C1_Status.state = fsmStateTable[I2C1_Stat
      +                          us.state]();
  4797  01B9  0020               	movlb	0	; select bank0
  4798  01BA  083A               	movf	_I2C1_Status+26,w
  4799  01BB  00C0               	movwf	??_I2C1_MasterFsm
  4800  01BC  01C1               	clrf	??_I2C1_MasterFsm+1
  4801  01BD  35C0               	lslf	??_I2C1_MasterFsm,f
  4802  01BE  0DC1               	rlf	??_I2C1_MasterFsm+1,f
  4803  01BF  306C               	movlw	low (_fsmStateTable| (0+32768))
  4804  01C0  0740               	addwf	??_I2C1_MasterFsm,w
  4805  01C1  0084               	movwf	4
  4806  01C2  3082               	movlw	high (_fsmStateTable| (0+32768))
  4807  01C3  3D41               	addwfc	??_I2C1_MasterFsm+1,w
  4808  01C4  0085               	movwf	5
  4809  01C5  3F01               	moviw [1]fsr0
  4810  01C6  008A               	movwf	10
  4811  01C7  3F00               	moviw [0]fsr0
  4812  01C8  000A               	callw
  4813  01C9  3181               	pagesel	$
  4814  01CA  0020               	movlb	0	; select bank0
  4815  01CB  00C2               	movwf	??_I2C1_MasterFsm+2
  4816  01CC  0842               	movf	??_I2C1_MasterFsm+2,w
  4817  01CD  00BA               	movwf	_I2C1_Status+26
  4818  01CE                     i1l268:	
  4819  01CE  0008               	return
  4820  01CF                     __end_of_I2C1_MasterFsm:	
  4821                           
  4822                           	psect	text25
  4823  0414                     __ptext25:	
  4824 ;; *************** function i1_I2C1_MasterClearIrq *****************
  4825 ;; Defined at:
  4826 ;;		line 642 in file "mcc_generated_files/i2c1_master.c"
  4827 ;; Parameters:    Size  Location     Type
  4828 ;;		None
  4829 ;; Auto vars:     Size  Location     Type
  4830 ;;		None
  4831 ;; Return value:  Size  Location     Type
  4832 ;;                  1    wreg      void 
  4833 ;; Registers used:
  4834 ;;		None
  4835 ;; Tracked objects:
  4836 ;;		On entry : 0/0
  4837 ;;		On exit  : 0/0
  4838 ;;		Unchanged: 0/0
  4839 ;; Data sizes:     COMMON   BANK0   BANK1   BANK2   BANK3   BANK4   BANK5   BANK6   BANK7   BANK8   BANK9  BANK10  BANK1
      +1  BANK12  BANK13  BANK14  BANK15  BANK16  BANK17  BANK18  BANK19  BANK20  BANK21  BANK22  BANK23  BANK24  BANK25
  4840 ;;      Params:         0       0       0       0       0       0       0       0       0       0       0       0       
      +0       0       0       0       0       0       0       0       0       0       0       0       0       0       0
  4841 ;;      Locals:         0       0       0       0       0       0       0       0       0       0       0       0       
      +0       0       0       0       0       0       0       0       0       0       0       0       0       0       0
  4842 ;;      Temps:          0       0       0       0       0       0       0       0       0       0       0       0       
      +0       0       0       0       0       0       0       0       0       0       0       0       0       0       0
  4843 ;;      Totals:         0       0       0       0       0       0       0       0       0       0       0       0       
      +0       0       0       0       0       0       0       0       0       0       0       0       0       0       0
  4844 ;;Total ram usage:        0 bytes
  4845 ;; Hardware stack levels used:    1
  4846 ;; This function calls:
  4847 ;;		Nothing
  4848 ;; This function is called by:
  4849 ;;		_I2C1_MasterFsm
  4850 ;; This function uses a non-reentrant model
  4851 ;;
  4852                           
  4853                           
  4854                           ;psect for function i1_I2C1_MasterClearIrq
  4855  0414                     i1_I2C1_MasterClearIrq:	
  4856  0414                     i1l2226:	
  4857                           ;incstack = 0
  4858                           ; Regs used in i1_I2C1_MasterClearIrq: []
  4859                           
  4860                           
  4861                           ;mcc_generated_files/i2c1_master.c: 644:     PIR1bits.SSP1IF = 0;
  4862  0414  0020               	movlb	0	; select bank0
  4863  0415  1191               	bcf	17,3	;volatile
  4864  0416                     i1l431:	
  4865  0416  0008               	return
  4866  0417                     __end_ofi1_I2C1_MasterClearIrq:	
  4867                           
  4868                           	psect	text26
  4869  0178                     __ptext26:	
  4870 ;; *************** function _I2C1_DO_ADDRESS_NACK *****************
  4871 ;; Defined at:
  4872 ;;		line 501 in file "mcc_generated_files/i2c1_master.c"
  4873 ;; Parameters:    Size  Location     Type
  4874 ;;		None
  4875 ;; Auto vars:     Size  Location     Type
  4876 ;;		None
  4877 ;; Return value:  Size  Location     Type
  4878 ;;                  1    wreg      enum E7156
  4879 ;; Registers used:
  4880 ;;		wreg, fsr0l, fsr0h, fsr1l, fsr1h, status,2, status,0, pclath, cstack
  4881 ;; Tracked objects:
  4882 ;;		On entry : 0/0
  4883 ;;		On exit  : 0/0
  4884 ;;		Unchanged: 0/0
  4885 ;; Data sizes:     COMMON   BANK0   BANK1   BANK2   BANK3   BANK4   BANK5   BANK6   BANK7   BANK8   BANK9  BANK10  BANK1
      +1  BANK12  BANK13  BANK14  BANK15  BANK16  BANK17  BANK18  BANK19  BANK20  BANK21  BANK22  BANK23  BANK24  BANK25
  4886 ;;      Params:         0       0       0       0       0       0       0       0       0       0       0       0       
      +0       0       0       0       0       0       0       0       0       0       0       0       0       0       0
  4887 ;;      Locals:         0       0       0       0       0       0       0       0       0       0       0       0       
      +0       0       0       0       0       0       0       0       0       0       0       0       0       0       0
  4888 ;;      Temps:          3       0       0       0       0       0       0       0       0       0       0       0       
      +0       0       0       0       0       0       0       0       0       0       0       0       0       0       0
  4889 ;;      Totals:         3       0       0       0       0       0       0       0       0       0       0       0       
      +0       0       0       0       0       0       0       0       0       0       0       0       0       0       0
  4890 ;;Total ram usage:        3 bytes
  4891 ;; Hardware stack levels used:    1
  4892 ;; Hardware stack levels required when called:    3
  4893 ;; This function calls:
  4894 ;;		Absolute function
  4895 ;;		_I2C1_CallbackReturnReset
  4896 ;;		_I2C1_CallbackReturnStop
  4897 ;;		_I2C1_DO_SEND_RESTART
  4898 ;;		_I2C1_DO_SEND_STOP
  4899 ;;		_rd1RegCompleteHandler
  4900 ;;		_rd2RegCompleteHandler
  4901 ;;		_rdBlkRegCompleteHandler
  4902 ;;		_wr1RegCompleteHandler
  4903 ;;		_wr2RegCompleteHandler
  4904 ;; This function is called by:
  4905 ;;		_I2C1_MasterFsm
  4906 ;; This function uses a non-reentrant model
  4907 ;;
  4908                           
  4909                           
  4910                           ;psect for function _I2C1_DO_ADDRESS_NACK
  4911  0178                     _I2C1_DO_ADDRESS_NACK:	
  4912  0178                     i1l2206:	
  4913                           ;incstack = 0
  4914                           ; Regs used in _I2C1_DO_ADDRESS_NACK: [wreg-fsr1h+status,2+status,0+pclath+cstack]
  4915                           
  4916                           
  4917                           ;mcc_generated_files/i2c1_master.c: 503:     I2C1_Status.addressNackCheck = 0;
  4918  0178  0020               	movlb	0	; select bank0
  4919  0179  103C               	bcf	_I2C1_Status+28,0
  4920  017A                     i1l2208:	
  4921                           
  4922                           ;mcc_generated_files/i2c1_master.c: 504:     I2C1_Status.error = I2C1_FAIL;
  4923  017A  3002               	movlw	2
  4924  017B  00FA               	movwf	??_I2C1_DO_ADDRESS_NACK
  4925  017C  087A               	movf	??_I2C1_DO_ADDRESS_NACK,w
  4926  017D  00BB               	movwf	_I2C1_Status+27
  4927                           
  4928                           ;mcc_generated_files/i2c1_master.c: 505:     switch(I2C1_Status.callbackTable[I2C1_ADDR_
      +                          NACK](I2C1_Status.callbackPayload[I2C1_ADDR_NACK]))
  4929  017E  2987               	goto	i1l2220
  4930  017F                     i1l2210:	
  4931                           
  4932                           ;mcc_generated_files/i2c1_master.c: 509:             return I2C1_DO_SEND_RESTART();
  4933  017F  3183  23DC  3181   	fcall	_I2C1_DO_SEND_RESTART
  4934  0182  29A3               	goto	i1l359
  4935  0183                     i1l2214:	
  4936                           
  4937                           ;mcc_generated_files/i2c1_master.c: 511:             return I2C1_DO_SEND_STOP();
  4938  0183  3183  23D7  3181   	fcall	_I2C1_DO_SEND_STOP
  4939  0186  29A3               	goto	i1l359
  4940  0187                     i1l2220:	
  4941  0187  082E               	movf	low ((_I2C1_Status| 0+14)),w
  4942  0188  00FA               	movwf	??_I2C1_DO_ADDRESS_NACK
  4943  0189  087A               	movf	??_I2C1_DO_ADDRESS_NACK,w
  4944  018A  00F9               	movwf	I2C1_CallbackReturnReset@funPtr
  4945  018B  3004               	movlw	4
  4946  018C  3E20               	addlw	(low (_I2C1_Status| 0))& (0+255)
  4947  018D  0086               	movwf	6
  4948  018E  0187               	clrf	7
  4949  018F  3F41               	moviw [1]fsr1
  4950  0190  008A               	movwf	10
  4951  0191  3F40               	moviw [0]fsr1
  4952  0192  000A               	callw
  4953  0193  3181               	pagesel	$
  4954  0194  00FB               	movwf	??_I2C1_DO_ADDRESS_NACK+1
  4955  0195  01FC               	clrf	??_I2C1_DO_ADDRESS_NACK+2
  4956                           
  4957                           ; Switch on 2 bytes has been partitioned into a top level switch of size 1, and 1 sub-sw
      +                          itches
  4958                           ; Switch size 1, requested type "simple"
  4959                           ; Number of cases is 1, Range of values is 0 to 0
  4960                           ; switch strategies available:
  4961                           ; Name         Instructions Cycles
  4962                           ; simple_byte            4     3 (average)
  4963                           ; direct_byte            8     6 (fixed)
  4964                           ; jumptable            260     6 (fixed)
  4965                           ;	Chosen strategy is simple_byte
  4966  0196  087C               	movf	??_I2C1_DO_ADDRESS_NACK+2,w
  4967  0197  3A00               	xorlw	0	; case 0
  4968  0198  1903               	skipnz
  4969  0199  299B               	goto	i1l2594
  4970  019A  2983               	goto	i1l2214
  4971  019B                     i1l2594:	
  4972                           
  4973                           ; Switch size 1, requested type "simple"
  4974                           ; Number of cases is 2, Range of values is 2 to 3
  4975                           ; switch strategies available:
  4976                           ; Name         Instructions Cycles
  4977                           ; simple_byte            7     4 (average)
  4978                           ; direct_byte           13     9 (fixed)
  4979                           ; jumptable            263     9 (fixed)
  4980                           ;	Chosen strategy is simple_byte
  4981  019B  087B               	movf	??_I2C1_DO_ADDRESS_NACK+1,w
  4982  019C  3A02               	xorlw	2	; case 2
  4983  019D  1903               	skipnz
  4984  019E  297F               	goto	i1l2210
  4985  019F  3A01               	xorlw	1	; case 3
  4986  01A0  1903               	skipnz
  4987  01A1  297F               	goto	i1l2210
  4988  01A2  2983               	goto	i1l2214
  4989  01A3                     i1l359:	
  4990  01A3  0008               	return
  4991  01A4                     __end_of_I2C1_DO_ADDRESS_NACK:	
  4992                           
  4993                           	psect	text27
  4994  03C3                     __ptext27:	
  4995 ;; *************** function _I2C1_DO_RESET *****************
  4996 ;; Defined at:
  4997 ;;		line 495 in file "mcc_generated_files/i2c1_master.c"
  4998 ;; Parameters:    Size  Location     Type
  4999 ;;		None
  5000 ;; Auto vars:     Size  Location     Type
  5001 ;;		None
  5002 ;; Return value:  Size  Location     Type
  5003 ;;                  1    wreg      enum E7156
  5004 ;; Registers used:
  5005 ;;		wreg, status,2
  5006 ;; Tracked objects:
  5007 ;;		On entry : 0/0
  5008 ;;		On exit  : 0/0
  5009 ;;		Unchanged: 0/0
  5010 ;; Data sizes:     COMMON   BANK0   BANK1   BANK2   BANK3   BANK4   BANK5   BANK6   BANK7   BANK8   BANK9  BANK10  BANK1
      +1  BANK12  BANK13  BANK14  BANK15  BANK16  BANK17  BANK18  BANK19  BANK20  BANK21  BANK22  BANK23  BANK24  BANK25
  5011 ;;      Params:         0       0       0       0       0       0       0       0       0       0       0       0       
      +0       0       0       0       0       0       0       0       0       0       0       0       0       0       0
  5012 ;;      Locals:         0       0       0       0       0       0       0       0       0       0       0       0       
      +0       0       0       0       0       0       0       0       0       0       0       0       0       0       0
  5013 ;;      Temps:          0       0       0       0       0       0       0       0       0       0       0       0       
      +0       0       0       0       0       0       0       0       0       0       0       0       0       0       0
  5014 ;;      Totals:         0       0       0       0       0       0       0       0       0       0       0       0       
      +0       0       0       0       0       0       0       0       0       0       0       0       0       0       0
  5015 ;;Total ram usage:        0 bytes
  5016 ;; Hardware stack levels used:    1
  5017 ;; This function calls:
  5018 ;;		Nothing
  5019 ;; This function is called by:
  5020 ;;		_I2C1_MasterFsm
  5021 ;; This function uses a non-reentrant model
  5022 ;;
  5023                           
  5024                           
  5025                           ;psect for function _I2C1_DO_RESET
  5026  03C3                     _I2C1_DO_RESET:	
  5027  03C3                     i1l2198:	
  5028                           ;incstack = 0
  5029                           ; Regs used in _I2C1_DO_RESET: [wreg+status,2]
  5030                           
  5031                           
  5032                           ;mcc_generated_files/i2c1_master.c: 497:     I2C1_Status.busy = 0;
  5033  03C3  0020               	movlb	0	; select bank0
  5034  03C4  10BC               	bcf	_I2C1_Status+28,1
  5035  03C5                     i1l2200:	
  5036                           
  5037                           ;mcc_generated_files/i2c1_master.c: 498:     I2C1_Status.error = I2C1_NOERR;
  5038  03C5  01BB               	clrf	_I2C1_Status+27
  5039  03C6                     i1l2202:	
  5040                           
  5041                           ;mcc_generated_files/i2c1_master.c: 499:     return I2C1_RESET;
  5042  03C6  300E               	movlw	14
  5043  03C7                     i1l353:	
  5044  03C7  0008               	return
  5045  03C8                     __end_of_I2C1_DO_RESET:	
  5046                           
  5047                           	psect	text28
  5048  03C8                     __ptext28:	
  5049 ;; *************** function _I2C1_DO_RX_NACK_RESTART *****************
  5050 ;; Defined at:
  5051 ;;		line 489 in file "mcc_generated_files/i2c1_master.c"
  5052 ;; Parameters:    Size  Location     Type
  5053 ;;		None
  5054 ;; Auto vars:     Size  Location     Type
  5055 ;;		None
  5056 ;; Return value:  Size  Location     Type
  5057 ;;                  1    wreg      enum E7156
  5058 ;; Registers used:
  5059 ;;		wreg, status,2, status,0, pclath, cstack
  5060 ;; Tracked objects:
  5061 ;;		On entry : 0/0
  5062 ;;		On exit  : 0/0
  5063 ;;		Unchanged: 0/0
  5064 ;; Data sizes:     COMMON   BANK0   BANK1   BANK2   BANK3   BANK4   BANK5   BANK6   BANK7   BANK8   BANK9  BANK10  BANK1
      +1  BANK12  BANK13  BANK14  BANK15  BANK16  BANK17  BANK18  BANK19  BANK20  BANK21  BANK22  BANK23  BANK24  BANK25
  5065 ;;      Params:         0       0       0       0       0       0       0       0       0       0       0       0       
      +0       0       0       0       0       0       0       0       0       0       0       0       0       0       0
  5066 ;;      Locals:         0       0       0       0       0       0       0       0       0       0       0       0       
      +0       0       0       0       0       0       0       0       0       0       0       0       0       0       0
  5067 ;;      Temps:          0       0       0       0       0       0       0       0       0       0       0       0       
      +0       0       0       0       0       0       0       0       0       0       0       0       0       0       0
  5068 ;;      Totals:         0       0       0       0       0       0       0       0       0       0       0       0       
      +0       0       0       0       0       0       0       0       0       0       0       0       0       0       0
  5069 ;;Total ram usage:        0 bytes
  5070 ;; Hardware stack levels used:    1
  5071 ;; Hardware stack levels required when called:    1
  5072 ;; This function calls:
  5073 ;;		_I2C1_MasterSendNack
  5074 ;; This function is called by:
  5075 ;;		_I2C1_DO_RX
  5076 ;;		_I2C1_MasterFsm
  5077 ;; This function uses a non-reentrant model
  5078 ;;
  5079                           
  5080                           
  5081                           ;psect for function _I2C1_DO_RX_NACK_RESTART
  5082  03C8                     _I2C1_DO_RX_NACK_RESTART:	
  5083  03C8                     i1l1996:	
  5084                           ;incstack = 0
  5085                           ; Regs used in _I2C1_DO_RX_NACK_RESTART: [wreg+status,2+status,0+pclath+cstack]
  5086                           
  5087                           
  5088                           ;mcc_generated_files/i2c1_master.c: 491:     I2C1_MasterSendNack();
  5089  03C8  3184  2401  3183   	fcall	_I2C1_MasterSendNack
  5090  03CB                     i1l1998:	
  5091                           
  5092                           ;mcc_generated_files/i2c1_master.c: 492:     return I2C1_SEND_RESTART;
  5093  03CB  3009               	movlw	9
  5094  03CC                     i1l350:	
  5095  03CC  0008               	return
  5096  03CD                     __end_of_I2C1_DO_RX_NACK_RESTART:	
  5097                           
  5098                           	psect	text29
  5099  03CD                     __ptext29:	
  5100 ;; *************** function _I2C1_DO_RX_NACK_STOP *****************
  5101 ;; Defined at:
  5102 ;;		line 483 in file "mcc_generated_files/i2c1_master.c"
  5103 ;; Parameters:    Size  Location     Type
  5104 ;;		None
  5105 ;; Auto vars:     Size  Location     Type
  5106 ;;		None
  5107 ;; Return value:  Size  Location     Type
  5108 ;;                  1    wreg      enum E7156
  5109 ;; Registers used:
  5110 ;;		wreg, status,2, status,0, pclath, cstack
  5111 ;; Tracked objects:
  5112 ;;		On entry : 0/0
  5113 ;;		On exit  : 0/0
  5114 ;;		Unchanged: 0/0
  5115 ;; Data sizes:     COMMON   BANK0   BANK1   BANK2   BANK3   BANK4   BANK5   BANK6   BANK7   BANK8   BANK9  BANK10  BANK1
      +1  BANK12  BANK13  BANK14  BANK15  BANK16  BANK17  BANK18  BANK19  BANK20  BANK21  BANK22  BANK23  BANK24  BANK25
  5116 ;;      Params:         0       0       0       0       0       0       0       0       0       0       0       0       
      +0       0       0       0       0       0       0       0       0       0       0       0       0       0       0
  5117 ;;      Locals:         0       0       0       0       0       0       0       0       0       0       0       0       
      +0       0       0       0       0       0       0       0       0       0       0       0       0       0       0
  5118 ;;      Temps:          0       0       0       0       0       0       0       0       0       0       0       0       
      +0       0       0       0       0       0       0       0       0       0       0       0       0       0       0
  5119 ;;      Totals:         0       0       0       0       0       0       0       0       0       0       0       0       
      +0       0       0       0       0       0       0       0       0       0       0       0       0       0       0
  5120 ;;Total ram usage:        0 bytes
  5121 ;; Hardware stack levels used:    1
  5122 ;; Hardware stack levels required when called:    1
  5123 ;; This function calls:
  5124 ;;		_I2C1_MasterSendNack
  5125 ;; This function is called by:
  5126 ;;		_I2C1_DO_RX
  5127 ;;		_I2C1_MasterFsm
  5128 ;; This function uses a non-reentrant model
  5129 ;;
  5130                           
  5131                           
  5132                           ;psect for function _I2C1_DO_RX_NACK_STOP
  5133  03CD                     _I2C1_DO_RX_NACK_STOP:	
  5134  03CD                     i1l2002:	
  5135                           ;incstack = 0
  5136                           ; Regs used in _I2C1_DO_RX_NACK_STOP: [wreg+status,2+status,0+pclath+cstack]
  5137                           
  5138                           
  5139                           ;mcc_generated_files/i2c1_master.c: 485:     I2C1_MasterSendNack();
  5140  03CD  3184  2401  3183   	fcall	_I2C1_MasterSendNack
  5141  03D0                     i1l2004:	
  5142                           
  5143                           ;mcc_generated_files/i2c1_master.c: 486:     return I2C1_SEND_STOP;
  5144  03D0  300A               	movlw	10
  5145  03D1                     i1l347:	
  5146  03D1  0008               	return
  5147  03D2                     __end_of_I2C1_DO_RX_NACK_STOP:	
  5148                           
  5149                           	psect	text30
  5150  03D2                     __ptext30:	
  5151 ;; *************** function _I2C1_DO_RX_ACK *****************
  5152 ;; Defined at:
  5153 ;;		line 476 in file "mcc_generated_files/i2c1_master.c"
  5154 ;; Parameters:    Size  Location     Type
  5155 ;;		None
  5156 ;; Auto vars:     Size  Location     Type
  5157 ;;		None
  5158 ;; Return value:  Size  Location     Type
  5159 ;;                  1    wreg      enum E7156
  5160 ;; Registers used:
  5161 ;;		wreg, status,2, status,0, pclath, cstack
  5162 ;; Tracked objects:
  5163 ;;		On entry : 0/0
  5164 ;;		On exit  : 0/0
  5165 ;;		Unchanged: 0/0
  5166 ;; Data sizes:     COMMON   BANK0   BANK1   BANK2   BANK3   BANK4   BANK5   BANK6   BANK7   BANK8   BANK9  BANK10  BANK1
      +1  BANK12  BANK13  BANK14  BANK15  BANK16  BANK17  BANK18  BANK19  BANK20  BANK21  BANK22  BANK23  BANK24  BANK25
  5167 ;;      Params:         0       0       0       0       0       0       0       0       0       0       0       0       
      +0       0       0       0       0       0       0       0       0       0       0       0       0       0       0
  5168 ;;      Locals:         0       0       0       0       0       0       0       0       0       0       0       0       
      +0       0       0       0       0       0       0       0       0       0       0       0       0       0       0
  5169 ;;      Temps:          0       0       0       0       0       0       0       0       0       0       0       0       
      +0       0       0       0       0       0       0       0       0       0       0       0       0       0       0
  5170 ;;      Totals:         0       0       0       0       0       0       0       0       0       0       0       0       
      +0       0       0       0       0       0       0       0       0       0       0       0       0       0       0
  5171 ;;Total ram usage:        0 bytes
  5172 ;; Hardware stack levels used:    1
  5173 ;; Hardware stack levels required when called:    1
  5174 ;; This function calls:
  5175 ;;		_I2C1_MasterSendAck
  5176 ;; This function is called by:
  5177 ;;		_I2C1_MasterFsm
  5178 ;; This function uses a non-reentrant model
  5179 ;;
  5180                           
  5181                           
  5182                           ;psect for function _I2C1_DO_RX_ACK
  5183  03D2                     _I2C1_DO_RX_ACK:	
  5184  03D2                     i1l2192:	
  5185                           ;incstack = 0
  5186                           ; Regs used in _I2C1_DO_RX_ACK: [wreg+status,2+status,0+pclath+cstack]
  5187                           
  5188                           
  5189                           ;mcc_generated_files/i2c1_master.c: 478:     I2C1_MasterSendAck();
  5190  03D2  3183  23FD  3183   	fcall	_I2C1_MasterSendAck
  5191  03D5                     i1l2194:	
  5192                           
  5193                           ;mcc_generated_files/i2c1_master.c: 479:     return I2C1_RCEN;
  5194  03D5  3005               	movlw	5
  5195  03D6                     i1l344:	
  5196  03D6  0008               	return
  5197  03D7                     __end_of_I2C1_DO_RX_ACK:	
  5198                           
  5199                           	psect	text31
  5200  03D7                     __ptext31:	
  5201 ;; *************** function _I2C1_DO_SEND_STOP *****************
  5202 ;; Defined at:
  5203 ;;		line 470 in file "mcc_generated_files/i2c1_master.c"
  5204 ;; Parameters:    Size  Location     Type
  5205 ;;		None
  5206 ;; Auto vars:     Size  Location     Type
  5207 ;;		None
  5208 ;; Return value:  Size  Location     Type
  5209 ;;                  1    wreg      enum E7156
  5210 ;; Registers used:
  5211 ;;		wreg, status,2, status,0, pclath, cstack
  5212 ;; Tracked objects:
  5213 ;;		On entry : 0/0
  5214 ;;		On exit  : 0/0
  5215 ;;		Unchanged: 0/0
  5216 ;; Data sizes:     COMMON   BANK0   BANK1   BANK2   BANK3   BANK4   BANK5   BANK6   BANK7   BANK8   BANK9  BANK10  BANK1
      +1  BANK12  BANK13  BANK14  BANK15  BANK16  BANK17  BANK18  BANK19  BANK20  BANK21  BANK22  BANK23  BANK24  BANK25
  5217 ;;      Params:         0       0       0       0       0       0       0       0       0       0       0       0       
      +0       0       0       0       0       0       0       0       0       0       0       0       0       0       0
  5218 ;;      Locals:         0       0       0       0       0       0       0       0       0       0       0       0       
      +0       0       0       0       0       0       0       0       0       0       0       0       0       0       0
  5219 ;;      Temps:          0       0       0       0       0       0       0       0       0       0       0       0       
      +0       0       0       0       0       0       0       0       0       0       0       0       0       0       0
  5220 ;;      Totals:         0       0       0       0       0       0       0       0       0       0       0       0       
      +0       0       0       0       0       0       0       0       0       0       0       0       0       0       0
  5221 ;;Total ram usage:        0 bytes
  5222 ;; Hardware stack levels used:    1
  5223 ;; Hardware stack levels required when called:    1
  5224 ;; This function calls:
  5225 ;;		_I2C1_MasterStop
  5226 ;; This function is called by:
  5227 ;;		_I2C1_DO_TX
  5228 ;;		_I2C1_DO_TX_EMPTY
  5229 ;;		_I2C1_DO_ADDRESS_NACK
  5230 ;;		_I2C1_MasterFsm
  5231 ;; This function uses a non-reentrant model
  5232 ;;
  5233                           
  5234                           
  5235                           ;psect for function _I2C1_DO_SEND_STOP
  5236  03D7                     _I2C1_DO_SEND_STOP:	
  5237  03D7                     i1l1984:	
  5238                           ;incstack = 0
  5239                           ; Regs used in _I2C1_DO_SEND_STOP: [wreg+status,2+status,0+pclath+cstack]
  5240                           
  5241                           
  5242                           ;mcc_generated_files/i2c1_master.c: 472:     I2C1_MasterStop();
  5243  03D7  3184  2420  3183   	fcall	_I2C1_MasterStop
  5244  03DA                     i1l1986:	
  5245                           
  5246                           ;mcc_generated_files/i2c1_master.c: 473:     return I2C1_IDLE;
  5247  03DA  3000               	movlw	0
  5248  03DB                     i1l341:	
  5249  03DB  0008               	return
  5250  03DC                     __end_of_I2C1_DO_SEND_STOP:	
  5251                           
  5252                           	psect	text32
  5253  03DC                     __ptext32:	
  5254 ;; *************** function _I2C1_DO_SEND_RESTART *****************
  5255 ;; Defined at:
  5256 ;;		line 464 in file "mcc_generated_files/i2c1_master.c"
  5257 ;; Parameters:    Size  Location     Type
  5258 ;;		None
  5259 ;; Auto vars:     Size  Location     Type
  5260 ;;		None
  5261 ;; Return value:  Size  Location     Type
  5262 ;;                  1    wreg      enum E7156
  5263 ;; Registers used:
  5264 ;;		wreg, status,2, status,0, pclath, cstack
  5265 ;; Tracked objects:
  5266 ;;		On entry : 0/0
  5267 ;;		On exit  : 0/0
  5268 ;;		Unchanged: 0/0
  5269 ;; Data sizes:     COMMON   BANK0   BANK1   BANK2   BANK3   BANK4   BANK5   BANK6   BANK7   BANK8   BANK9  BANK10  BANK1
      +1  BANK12  BANK13  BANK14  BANK15  BANK16  BANK17  BANK18  BANK19  BANK20  BANK21  BANK22  BANK23  BANK24  BANK25
  5270 ;;      Params:         0       0       0       0       0       0       0       0       0       0       0       0       
      +0       0       0       0       0       0       0       0       0       0       0       0       0       0       0
  5271 ;;      Locals:         0       0       0       0       0       0       0       0       0       0       0       0       
      +0       0       0       0       0       0       0       0       0       0       0       0       0       0       0
  5272 ;;      Temps:          0       0       0       0       0       0       0       0       0       0       0       0       
      +0       0       0       0       0       0       0       0       0       0       0       0       0       0       0
  5273 ;;      Totals:         0       0       0       0       0       0       0       0       0       0       0       0       
      +0       0       0       0       0       0       0       0       0       0       0       0       0       0       0
  5274 ;;Total ram usage:        0 bytes
  5275 ;; Hardware stack levels used:    1
  5276 ;; Hardware stack levels required when called:    1
  5277 ;; This function calls:
  5278 ;;		_I2C1_MasterEnableRestart
  5279 ;; This function is called by:
  5280 ;;		_I2C1_DO_TX_EMPTY
  5281 ;;		_I2C1_DO_ADDRESS_NACK
  5282 ;;		_I2C1_MasterFsm
  5283 ;; This function uses a non-reentrant model
  5284 ;;
  5285                           
  5286                           
  5287                           ;psect for function _I2C1_DO_SEND_RESTART
  5288  03DC                     _I2C1_DO_SEND_RESTART:	
  5289  03DC                     i1l2010:	
  5290                           ;incstack = 0
  5291                           ; Regs used in _I2C1_DO_SEND_RESTART: [wreg+status,2+status,0+pclath+cstack]
  5292                           
  5293                           
  5294                           ;mcc_generated_files/i2c1_master.c: 466:     I2C1_MasterEnableRestart();
  5295  03DC  3184  2423  3183   	fcall	_I2C1_MasterEnableRestart
  5296  03DF                     i1l2012:	
  5297                           
  5298                           ;mcc_generated_files/i2c1_master.c: 467:     return I2C1_SEND_ADR_READ;
  5299  03DF  3001               	movlw	1
  5300  03E0                     i1l338:	
  5301  03E0  0008               	return
  5302  03E1                     __end_of_I2C1_DO_SEND_RESTART:	
  5303                           
  5304                           	psect	text33
  5305  03E1                     __ptext33:	
  5306 ;; *************** function _I2C1_DO_SEND_RESTART_WRITE *****************
  5307 ;; Defined at:
  5308 ;;		line 457 in file "mcc_generated_files/i2c1_master.c"
  5309 ;; Parameters:    Size  Location     Type
  5310 ;;		None
  5311 ;; Auto vars:     Size  Location     Type
  5312 ;;		None
  5313 ;; Return value:  Size  Location     Type
  5314 ;;                  1    wreg      enum E7156
  5315 ;; Registers used:
  5316 ;;		wreg, status,2, status,0, pclath, cstack
  5317 ;; Tracked objects:
  5318 ;;		On entry : 0/0
  5319 ;;		On exit  : 0/0
  5320 ;;		Unchanged: 0/0
  5321 ;; Data sizes:     COMMON   BANK0   BANK1   BANK2   BANK3   BANK4   BANK5   BANK6   BANK7   BANK8   BANK9  BANK10  BANK1
      +1  BANK12  BANK13  BANK14  BANK15  BANK16  BANK17  BANK18  BANK19  BANK20  BANK21  BANK22  BANK23  BANK24  BANK25
  5322 ;;      Params:         0       0       0       0       0       0       0       0       0       0       0       0       
      +0       0       0       0       0       0       0       0       0       0       0       0       0       0       0
  5323 ;;      Locals:         0       0       0       0       0       0       0       0       0       0       0       0       
      +0       0       0       0       0       0       0       0       0       0       0       0       0       0       0
  5324 ;;      Temps:          0       0       0       0       0       0       0       0       0       0       0       0       
      +0       0       0       0       0       0       0       0       0       0       0       0       0       0       0
  5325 ;;      Totals:         0       0       0       0       0       0       0       0       0       0       0       0       
      +0       0       0       0       0       0       0       0       0       0       0       0       0       0       0
  5326 ;;Total ram usage:        0 bytes
  5327 ;; Hardware stack levels used:    1
  5328 ;; Hardware stack levels required when called:    1
  5329 ;; This function calls:
  5330 ;;		_I2C1_MasterEnableRestart
  5331 ;; This function is called by:
  5332 ;;		_I2C1_DO_TX
  5333 ;;		_I2C1_MasterFsm
  5334 ;; This function uses a non-reentrant model
  5335 ;;
  5336                           
  5337                           
  5338                           ;psect for function _I2C1_DO_SEND_RESTART_WRITE
  5339  03E1                     _I2C1_DO_SEND_RESTART_WRITE:	
  5340  03E1                     i1l1978:	
  5341                           ;incstack = 0
  5342                           ; Regs used in _I2C1_DO_SEND_RESTART_WRITE: [wreg+status,2+status,0+pclath+cstack]
  5343                           
  5344                           
  5345                           ;mcc_generated_files/i2c1_master.c: 459:     I2C1_MasterEnableRestart();
  5346  03E1  3184  2423  3183   	fcall	_I2C1_MasterEnableRestart
  5347  03E4                     i1l1980:	
  5348                           
  5349                           ;mcc_generated_files/i2c1_master.c: 460:     return I2C1_SEND_ADR_WRITE;
  5350  03E4  3002               	movlw	2
  5351  03E5                     i1l335:	
  5352  03E5  0008               	return
  5353  03E6                     __end_of_I2C1_DO_SEND_RESTART_WRITE:	
  5354                           
  5355                           	psect	text34
  5356  03E6                     __ptext34:	
  5357 ;; *************** function _I2C1_DO_SEND_RESTART_READ *****************
  5358 ;; Defined at:
  5359 ;;		line 451 in file "mcc_generated_files/i2c1_master.c"
  5360 ;; Parameters:    Size  Location     Type
  5361 ;;		None
  5362 ;; Auto vars:     Size  Location     Type
  5363 ;;		None
  5364 ;; Return value:  Size  Location     Type
  5365 ;;                  1    wreg      enum E7156
  5366 ;; Registers used:
  5367 ;;		wreg, status,2, status,0, pclath, cstack
  5368 ;; Tracked objects:
  5369 ;;		On entry : 0/0
  5370 ;;		On exit  : 0/0
  5371 ;;		Unchanged: 0/0
  5372 ;; Data sizes:     COMMON   BANK0   BANK1   BANK2   BANK3   BANK4   BANK5   BANK6   BANK7   BANK8   BANK9  BANK10  BANK1
      +1  BANK12  BANK13  BANK14  BANK15  BANK16  BANK17  BANK18  BANK19  BANK20  BANK21  BANK22  BANK23  BANK24  BANK25
  5373 ;;      Params:         0       0       0       0       0       0       0       0       0       0       0       0       
      +0       0       0       0       0       0       0       0       0       0       0       0       0       0       0
  5374 ;;      Locals:         0       0       0       0       0       0       0       0       0       0       0       0       
      +0       0       0       0       0       0       0       0       0       0       0       0       0       0       0
  5375 ;;      Temps:          0       0       0       0       0       0       0       0       0       0       0       0       
      +0       0       0       0       0       0       0       0       0       0       0       0       0       0       0
  5376 ;;      Totals:         0       0       0       0       0       0       0       0       0       0       0       0       
      +0       0       0       0       0       0       0       0       0       0       0       0       0       0       0
  5377 ;;Total ram usage:        0 bytes
  5378 ;; Hardware stack levels used:    1
  5379 ;; Hardware stack levels required when called:    1
  5380 ;; This function calls:
  5381 ;;		_I2C1_MasterEnableRestart
  5382 ;; This function is called by:
  5383 ;;		_I2C1_DO_TX
  5384 ;;		_I2C1_MasterFsm
  5385 ;; This function uses a non-reentrant model
  5386 ;;
  5387                           
  5388                           
  5389                           ;psect for function _I2C1_DO_SEND_RESTART_READ
  5390  03E6                     _I2C1_DO_SEND_RESTART_READ:	
  5391  03E6                     i1l1972:	
  5392                           ;incstack = 0
  5393                           ; Regs used in _I2C1_DO_SEND_RESTART_READ: [wreg+status,2+status,0+pclath+cstack]
  5394                           
  5395                           
  5396                           ;mcc_generated_files/i2c1_master.c: 453:     I2C1_MasterEnableRestart();
  5397  03E6  3184  2423  3183   	fcall	_I2C1_MasterEnableRestart
  5398  03E9                     i1l1974:	
  5399                           
  5400                           ;mcc_generated_files/i2c1_master.c: 454:     return I2C1_SEND_ADR_READ;
  5401  03E9  3001               	movlw	1
  5402  03EA                     i1l332:	
  5403  03EA  0008               	return
  5404  03EB                     __end_of_I2C1_DO_SEND_RESTART_READ:	
  5405                           
  5406                           	psect	text35
  5407  03A5                     __ptext35:	
  5408 ;; *************** function _I2C1_DO_RCEN *****************
  5409 ;; Defined at:
  5410 ;;		line 404 in file "mcc_generated_files/i2c1_master.c"
  5411 ;; Parameters:    Size  Location     Type
  5412 ;;		None
  5413 ;; Auto vars:     Size  Location     Type
  5414 ;;		None
  5415 ;; Return value:  Size  Location     Type
  5416 ;;                  1    wreg      enum E7156
  5417 ;; Registers used:
  5418 ;;		wreg, status,2, status,0, pclath, cstack
  5419 ;; Tracked objects:
  5420 ;;		On entry : 0/0
  5421 ;;		On exit  : 0/0
  5422 ;;		Unchanged: 0/0
  5423 ;; Data sizes:     COMMON   BANK0   BANK1   BANK2   BANK3   BANK4   BANK5   BANK6   BANK7   BANK8   BANK9  BANK10  BANK1
      +1  BANK12  BANK13  BANK14  BANK15  BANK16  BANK17  BANK18  BANK19  BANK20  BANK21  BANK22  BANK23  BANK24  BANK25
  5424 ;;      Params:         0       0       0       0       0       0       0       0       0       0       0       0       
      +0       0       0       0       0       0       0       0       0       0       0       0       0       0       0
  5425 ;;      Locals:         0       0       0       0       0       0       0       0       0       0       0       0       
      +0       0       0       0       0       0       0       0       0       0       0       0       0       0       0
  5426 ;;      Temps:          0       0       0       0       0       0       0       0       0       0       0       0       
      +0       0       0       0       0       0       0       0       0       0       0       0       0       0       0
  5427 ;;      Totals:         0       0       0       0       0       0       0       0       0       0       0       0       
      +0       0       0       0       0       0       0       0       0       0       0       0       0       0       0
  5428 ;;Total ram usage:        0 bytes
  5429 ;; Hardware stack levels used:    1
  5430 ;; Hardware stack levels required when called:    1
  5431 ;; This function calls:
  5432 ;;		_I2C1_MasterStartRx
  5433 ;; This function is called by:
  5434 ;;		_I2C1_MasterFsm
  5435 ;; This function uses a non-reentrant model
  5436 ;;
  5437                           
  5438                           
  5439                           ;psect for function _I2C1_DO_RCEN
  5440  03A5                     _I2C1_DO_RCEN:	
  5441  03A5                     i1l2160:	
  5442                           ;incstack = 0
  5443                           ; Regs used in _I2C1_DO_RCEN: [wreg+status,2+status,0+pclath+cstack]
  5444                           
  5445                           
  5446                           ;mcc_generated_files/i2c1_master.c: 406:     I2C1_Status.addressNackCheck = 0;
  5447  03A5  0020               	movlb	0	; select bank0
  5448  03A6  103C               	bcf	_I2C1_Status+28,0
  5449  03A7                     i1l2162:	
  5450                           
  5451                           ;mcc_generated_files/i2c1_master.c: 407:     I2C1_MasterStartRx();
  5452  03A7  3184  241D  3183   	fcall	_I2C1_MasterStartRx
  5453  03AA                     i1l2164:	
  5454                           
  5455                           ;mcc_generated_files/i2c1_master.c: 408:     return I2C1_RX;
  5456  03AA  3004               	movlw	4
  5457  03AB                     i1l308:	
  5458  03AB  0008               	return
  5459  03AC                     __end_of_I2C1_DO_RCEN:	
  5460                           
  5461                           	psect	text36
  5462  008A                     __ptext36:	
  5463 ;; *************** function _I2C1_DO_RX *****************
  5464 ;; Defined at:
  5465 ;;		line 380 in file "mcc_generated_files/i2c1_master.c"
  5466 ;; Parameters:    Size  Location     Type
  5467 ;;		None
  5468 ;; Auto vars:     Size  Location     Type
  5469 ;;		None
  5470 ;; Return value:  Size  Location     Type
  5471 ;;                  1    wreg      enum E7156
  5472 ;; Registers used:
  5473 ;;		wreg, fsr0l, fsr0h, fsr1l, fsr1h, status,2, status,0, pclath, cstack
  5474 ;; Tracked objects:
  5475 ;;		On entry : 0/0
  5476 ;;		On exit  : 0/0
  5477 ;;		Unchanged: 0/0
  5478 ;; Data sizes:     COMMON   BANK0   BANK1   BANK2   BANK3   BANK4   BANK5   BANK6   BANK7   BANK8   BANK9  BANK10  BANK1
      +1  BANK12  BANK13  BANK14  BANK15  BANK16  BANK17  BANK18  BANK19  BANK20  BANK21  BANK22  BANK23  BANK24  BANK25
  5479 ;;      Params:         0       0       0       0       0       0       0       0       0       0       0       0       
      +0       0       0       0       0       0       0       0       0       0       0       0       0       0       0
  5480 ;;      Locals:         0       0       0       0       0       0       0       0       0       0       0       0       
      +0       0       0       0       0       0       0       0       0       0       0       0       0       0       0
  5481 ;;      Temps:          3       0       0       0       0       0       0       0       0       0       0       0       
      +0       0       0       0       0       0       0       0       0       0       0       0       0       0       0
  5482 ;;      Totals:         3       0       0       0       0       0       0       0       0       0       0       0       
      +0       0       0       0       0       0       0       0       0       0       0       0       0       0       0
  5483 ;;Total ram usage:        3 bytes
  5484 ;; Hardware stack levels used:    1
  5485 ;; Hardware stack levels required when called:    3
  5486 ;; This function calls:
  5487 ;;		Absolute function
  5488 ;;		_I2C1_CallbackReturnReset
  5489 ;;		_I2C1_CallbackReturnStop
  5490 ;;		_I2C1_DO_RX_NACK_RESTART
  5491 ;;		_I2C1_DO_RX_NACK_STOP
  5492 ;;		_I2C1_MasterGetRxData
  5493 ;;		_I2C1_MasterSendAck
  5494 ;;		_rd1RegCompleteHandler
  5495 ;;		_rd2RegCompleteHandler
  5496 ;;		_rdBlkRegCompleteHandler
  5497 ;;		_wr1RegCompleteHandler
  5498 ;;		_wr2RegCompleteHandler
  5499 ;; This function is called by:
  5500 ;;		_I2C1_MasterFsm
  5501 ;; This function uses a non-reentrant model
  5502 ;;
  5503                           
  5504                           
  5505                           ;psect for function _I2C1_DO_RX
  5506  008A                     _I2C1_DO_RX:	
  5507  008A                     i1l2130:	
  5508                           ;incstack = 0
  5509                           ; Regs used in _I2C1_DO_RX: [wreg-fsr1h+status,2+status,0+pclath+cstack]
  5510                           
  5511                           
  5512                           ;mcc_generated_files/i2c1_master.c: 382:     *I2C1_Status.data_ptr++ = I2C1_MasterGetRxD
      +                          ata();
  5513  008A  3184  241A  3180   	fcall	_I2C1_MasterGetRxData
  5514  008D  00FA               	movwf	??_I2C1_DO_RX
  5515  008E  0020               	movlb	0	; select bank0
  5516  008F  0837               	movf	low ((_I2C1_Status| 0+23)),w
  5517  0090  0086               	movwf	6
  5518  0091  0187               	clrf	7
  5519  0092  087A               	movf	??_I2C1_DO_RX,w
  5520  0093  0081               	movwf	1
  5521  0094                     i1l2132:	
  5522  0094  3001               	movlw	1
  5523  0095  00FA               	movwf	??_I2C1_DO_RX
  5524  0096  087A               	movf	??_I2C1_DO_RX,w
  5525  0097  07B7               	addwf	low ((_I2C1_Status| 0+23)),f
  5526  0098                     i1l2134:	
  5527                           
  5528                           ;mcc_generated_files/i2c1_master.c: 383:     if(--I2C1_Status.data_length)
  5529  0098  3001               	movlw	1
  5530  0099  02B8               	subwf	_I2C1_Status+24,f
  5531  009A  3000               	movlw	0
  5532  009B  3BB9               	subwfb	_I2C1_Status+25,f
  5533  009C  0838               	movf	_I2C1_Status+24,w
  5534  009D  0439               	iorwf	_I2C1_Status+25,w
  5535  009E  1903               	btfsc	3,2
  5536  009F  28A1               	goto	u44_21
  5537  00A0  28A2               	goto	u44_20
  5538  00A1                     u44_21:	
  5539  00A1  28A7               	goto	i1l296
  5540  00A2                     u44_20:	
  5541  00A2                     i1l2136:	
  5542                           
  5543                           ;mcc_generated_files/i2c1_master.c: 384:     {;mcc_generated_files/i2c1_master.c: 385:  
      +                                 I2C1_MasterSendAck();
  5544  00A2  3183  23FD  3180   	fcall	_I2C1_MasterSendAck
  5545  00A5                     i1l2138:	
  5546                           
  5547                           ;mcc_generated_files/i2c1_master.c: 386:         return I2C1_RCEN;
  5548  00A5  3005               	movlw	5
  5549  00A6  28CF               	goto	i1l297
  5550  00A7                     i1l296:	
  5551                           ;mcc_generated_files/i2c1_master.c: 388:     else
  5552                           
  5553                           
  5554                           ;mcc_generated_files/i2c1_master.c: 389:     {;mcc_generated_files/i2c1_master.c: 390:  
      +                                 I2C1_Status.bufferFree = 1;
  5555  00A7  15BC               	bsf	_I2C1_Status+28,3
  5556                           
  5557                           ;mcc_generated_files/i2c1_master.c: 391:         switch(I2C1_Status.callbackTable[I2C1_D
      +                          ATA_COMPLETE](I2C1_Status.callbackPayload[I2C1_DATA_COMPLETE]))
  5558  00A8  28B1               	goto	i1l2154
  5559  00A9                     i1l2144:	
  5560                           
  5561                           ;mcc_generated_files/i2c1_master.c: 395:                 return I2C1_DO_RX_NACK_RESTART(
      +                          );
  5562  00A9  3183  23C8  3180   	fcall	_I2C1_DO_RX_NACK_RESTART
  5563  00AC  28CF               	goto	i1l297
  5564  00AD                     i1l2148:	
  5565                           
  5566                           ;mcc_generated_files/i2c1_master.c: 399:                 return I2C1_DO_RX_NACK_STOP();
  5567  00AD  3183  23CD  3180   	fcall	_I2C1_DO_RX_NACK_STOP
  5568  00B0  28CF               	goto	i1l297
  5569  00B1                     i1l2154:	
  5570  00B1  082C               	movf	low ((_I2C1_Status| 0+12)),w
  5571  00B2  00FA               	movwf	??_I2C1_DO_RX
  5572  00B3  087A               	movf	??_I2C1_DO_RX,w
  5573  00B4  00F9               	movwf	I2C1_CallbackReturnReset@funPtr
  5574  00B5  0821               	movf	_I2C1_Status+1,w
  5575  00B6  008A               	movwf	10
  5576  00B7  0820               	movf	_I2C1_Status,w
  5577  00B8  000A               	callw
  5578  00B9  3180               	pagesel	$
  5579  00BA  00FB               	movwf	??_I2C1_DO_RX+1
  5580  00BB  01FC               	clrf	??_I2C1_DO_RX+2
  5581                           
  5582                           ; Switch on 2 bytes has been partitioned into a top level switch of size 1, and 1 sub-sw
      +                          itches
  5583                           ; Switch size 1, requested type "simple"
  5584                           ; Number of cases is 1, Range of values is 0 to 0
  5585                           ; switch strategies available:
  5586                           ; Name         Instructions Cycles
  5587                           ; simple_byte            4     3 (average)
  5588                           ; direct_byte            8     6 (fixed)
  5589                           ; jumptable            260     6 (fixed)
  5590                           ;	Chosen strategy is simple_byte
  5591  00BC  087C               	movf	??_I2C1_DO_RX+2,w
  5592  00BD  3A00               	xorlw	0	; case 0
  5593  00BE  1903               	skipnz
  5594  00BF  28C1               	goto	i1l2596
  5595  00C0  28AD               	goto	i1l2148
  5596  00C1                     i1l2596:	
  5597                           
  5598                           ; Switch size 1, requested type "simple"
  5599                           ; Number of cases is 4, Range of values is 1 to 4
  5600                           ; switch strategies available:
  5601                           ; Name         Instructions Cycles
  5602                           ; simple_byte           13     7 (average)
  5603                           ; direct_byte           17     9 (fixed)
  5604                           ; jumptable            263     9 (fixed)
  5605                           ;	Chosen strategy is simple_byte
  5606  00C1  087B               	movf	??_I2C1_DO_RX+1,w
  5607  00C2  3A01               	xorlw	1	; case 1
  5608  00C3  1903               	skipnz
  5609  00C4  28AD               	goto	i1l2148
  5610  00C5  3A03               	xorlw	3	; case 2
  5611  00C6  1903               	skipnz
  5612  00C7  28A9               	goto	i1l2144
  5613  00C8  3A01               	xorlw	1	; case 3
  5614  00C9  1903               	skipnz
  5615  00CA  28A9               	goto	i1l2144
  5616  00CB  3A07               	xorlw	7	; case 4
  5617  00CC  1903               	skipnz
  5618  00CD  28AD               	goto	i1l2148
  5619  00CE  28AD               	goto	i1l2148
  5620  00CF                     i1l297:	
  5621  00CF  0008               	return
  5622  00D0                     __end_of_I2C1_DO_RX:	
  5623                           
  5624                           	psect	text37
  5625  0035                     __ptext37:	
  5626 ;; *************** function _I2C1_DO_TX *****************
  5627 ;; Defined at:
  5628 ;;		line 356 in file "mcc_generated_files/i2c1_master.c"
  5629 ;; Parameters:    Size  Location     Type
  5630 ;;		None
  5631 ;; Auto vars:     Size  Location     Type
  5632 ;;		None
  5633 ;; Return value:  Size  Location     Type
  5634 ;;                  1    wreg      enum E7156
  5635 ;; Registers used:
  5636 ;;		wreg, fsr0l, fsr0h, fsr1l, fsr1h, status,2, status,0, pclath, cstack
  5637 ;; Tracked objects:
  5638 ;;		On entry : 0/0
  5639 ;;		On exit  : 0/0
  5640 ;;		Unchanged: 0/0
  5641 ;; Data sizes:     COMMON   BANK0   BANK1   BANK2   BANK3   BANK4   BANK5   BANK6   BANK7   BANK8   BANK9  BANK10  BANK1
      +1  BANK12  BANK13  BANK14  BANK15  BANK16  BANK17  BANK18  BANK19  BANK20  BANK21  BANK22  BANK23  BANK24  BANK25
  5642 ;;      Params:         0       0       0       0       0       0       0       0       0       0       0       0       
      +0       0       0       0       0       0       0       0       0       0       0       0       0       0       0
  5643 ;;      Locals:         0       0       0       0       0       0       0       0       0       0       0       0       
      +0       0       0       0       0       0       0       0       0       0       0       0       0       0       0
  5644 ;;      Temps:          3       0       0       0       0       0       0       0       0       0       0       0       
      +0       0       0       0       0       0       0       0       0       0       0       0       0       0       0
  5645 ;;      Totals:         3       0       0       0       0       0       0       0       0       0       0       0       
      +0       0       0       0       0       0       0       0       0       0       0       0       0       0       0
  5646 ;;Total ram usage:        3 bytes
  5647 ;; Hardware stack levels used:    1
  5648 ;; Hardware stack levels required when called:    3
  5649 ;; This function calls:
  5650 ;;		Absolute function
  5651 ;;		_I2C1_CallbackReturnReset
  5652 ;;		_I2C1_CallbackReturnStop
  5653 ;;		_I2C1_DO_SEND_RESTART_READ
  5654 ;;		_I2C1_DO_SEND_RESTART_WRITE
  5655 ;;		_I2C1_DO_SEND_STOP
  5656 ;;		_I2C1_MasterIsNack
  5657 ;;		_I2C1_MasterSendTxData
  5658 ;;		_rd1RegCompleteHandler
  5659 ;;		_rd2RegCompleteHandler
  5660 ;;		_rdBlkRegCompleteHandler
  5661 ;;		_wr1RegCompleteHandler
  5662 ;;		_wr2RegCompleteHandler
  5663 ;; This function is called by:
  5664 ;;		_I2C1_MasterFsm
  5665 ;; This function uses a non-reentrant model
  5666 ;;
  5667                           
  5668                           
  5669                           ;psect for function _I2C1_DO_TX
  5670  0035                     _I2C1_DO_TX:	
  5671  0035                     i1l2096:	
  5672                           ;incstack = 0
  5673                           ; Regs used in _I2C1_DO_TX: [wreg-fsr1h+status,2+status,0+pclath+cstack]
  5674                           
  5675                           
  5676                           ;mcc_generated_files/i2c1_master.c: 358:     if(I2C1_MasterIsNack())
  5677  0035  3183  23B8  3180   	fcall	_I2C1_MasterIsNack
  5678  0038  3A00               	xorlw	0
  5679  0039  1903               	skipnz
  5680  003A  283C               	goto	u42_21
  5681  003B  283D               	goto	u42_20
  5682  003C                     u42_21:	
  5683  003C  286D               	goto	i1l280
  5684  003D                     u42_20:	
  5685  003D  284A               	goto	i1l2114
  5686  003E                     i1l2100:	
  5687                           
  5688                           ;mcc_generated_files/i2c1_master.c: 363:                 return I2C1_DO_SEND_RESTART_REA
      +                          D();
  5689  003E  3183  23E6  3180   	fcall	_I2C1_DO_SEND_RESTART_READ
  5690  0041  2889               	goto	i1l283
  5691  0042                     i1l2104:	
  5692                           
  5693                           ;mcc_generated_files/i2c1_master.c: 365:                   return I2C1_DO_SEND_RESTART_W
      +                          RITE();
  5694  0042  3183  23E1  3180   	fcall	_I2C1_DO_SEND_RESTART_WRITE
  5695  0045  2889               	goto	i1l283
  5696  0046                     i1l2108:	
  5697                           
  5698                           ;mcc_generated_files/i2c1_master.c: 369:                 return I2C1_DO_SEND_STOP();
  5699  0046  3183  23D7  3180   	fcall	_I2C1_DO_SEND_STOP
  5700  0049  2889               	goto	i1l283
  5701  004A                     i1l2114:	
  5702  004A  0020               	movlb	0	; select bank0
  5703  004B  082F               	movf	low ((_I2C1_Status| 0+15)),w
  5704  004C  00FA               	movwf	??_I2C1_DO_TX
  5705  004D  087A               	movf	??_I2C1_DO_TX,w
  5706  004E  00F9               	movwf	I2C1_CallbackReturnReset@funPtr
  5707  004F  3006               	movlw	6
  5708  0050  3E20               	addlw	(low (_I2C1_Status| 0))& (0+255)
  5709  0051  0086               	movwf	6
  5710  0052  0187               	clrf	7
  5711  0053  3F41               	moviw [1]fsr1
  5712  0054  008A               	movwf	10
  5713  0055  3F40               	moviw [0]fsr1
  5714  0056  000A               	callw
  5715  0057  3180               	pagesel	$
  5716  0058  00FB               	movwf	??_I2C1_DO_TX+1
  5717  0059  01FC               	clrf	??_I2C1_DO_TX+2
  5718                           
  5719                           ; Switch on 2 bytes has been partitioned into a top level switch of size 1, and 1 sub-sw
      +                          itches
  5720                           ; Switch size 1, requested type "simple"
  5721                           ; Number of cases is 1, Range of values is 0 to 0
  5722                           ; switch strategies available:
  5723                           ; Name         Instructions Cycles
  5724                           ; simple_byte            4     3 (average)
  5725                           ; direct_byte            8     6 (fixed)
  5726                           ; jumptable            260     6 (fixed)
  5727                           ;	Chosen strategy is simple_byte
  5728  005A  087C               	movf	??_I2C1_DO_TX+2,w
  5729  005B  3A00               	xorlw	0	; case 0
  5730  005C  1903               	skipnz
  5731  005D  285F               	goto	i1l2598
  5732  005E  2846               	goto	i1l2108
  5733  005F                     i1l2598:	
  5734                           
  5735                           ; Switch size 1, requested type "simple"
  5736                           ; Number of cases is 4, Range of values is 1 to 4
  5737                           ; switch strategies available:
  5738                           ; Name         Instructions Cycles
  5739                           ; simple_byte           13     7 (average)
  5740                           ; direct_byte           17     9 (fixed)
  5741                           ; jumptable            263     9 (fixed)
  5742                           ;	Chosen strategy is simple_byte
  5743  005F  087B               	movf	??_I2C1_DO_TX+1,w
  5744  0060  3A01               	xorlw	1	; case 1
  5745  0061  1903               	skipnz
  5746  0062  2846               	goto	i1l2108
  5747  0063  3A03               	xorlw	3	; case 2
  5748  0064  1903               	skipnz
  5749  0065  283E               	goto	i1l2100
  5750  0066  3A01               	xorlw	1	; case 3
  5751  0067  1903               	skipnz
  5752  0068  2842               	goto	i1l2104
  5753  0069  3A07               	xorlw	7	; case 4
  5754  006A  1903               	skipnz
  5755  006B  2846               	goto	i1l2108
  5756  006C  2846               	goto	i1l2108
  5757  006D                     i1l280:	
  5758                           ;mcc_generated_files/i2c1_master.c: 372:     else
  5759                           
  5760                           
  5761                           ;mcc_generated_files/i2c1_master.c: 373:     {;mcc_generated_files/i2c1_master.c: 374:  
      +                                 I2C1_Status.addressNackCheck = 0;
  5762  006D  0020               	movlb	0	; select bank0
  5763  006E  103C               	bcf	_I2C1_Status+28,0
  5764  006F                     i1l2116:	
  5765                           
  5766                           ;mcc_generated_files/i2c1_master.c: 375:         I2C1_MasterSendTxData(*I2C1_Status.data
      +                          _ptr++);
  5767  006F  3017               	movlw	23
  5768  0070  3E20               	addlw	(low (_I2C1_Status| 0))& (0+255)
  5769  0071  0086               	movwf	6
  5770  0072  0187               	clrf	7
  5771  0073  3F40               	moviw [0]fsr1
  5772  0074  0084               	movwf	4
  5773  0075  0185               	clrf	5
  5774  0076  0A81               	incf	1,f
  5775  0077  0800               	movf	0,w
  5776  0078  3183  23F0  3180   	fcall	_I2C1_MasterSendTxData
  5777  007B                     i1l2118:	
  5778                           
  5779                           ;mcc_generated_files/i2c1_master.c: 376:         return (--I2C1_Status.data_length)?I2C1
      +                          _TX:I2C1_TX_EMPTY;
  5780  007B  3001               	movlw	1
  5781  007C  0020               	movlb	0	; select bank0
  5782  007D  02B8               	subwf	_I2C1_Status+24,f
  5783  007E  3000               	movlw	0
  5784  007F  3BB9               	subwfb	_I2C1_Status+25,f
  5785  0080  0838               	movf	_I2C1_Status+24,w
  5786  0081  0439               	iorwf	_I2C1_Status+25,w
  5787  0082  1D03               	btfss	3,2
  5788  0083  2885               	goto	u43_21
  5789  0084  2886               	goto	u43_20
  5790  0085                     u43_21:	
  5791  0085  2888               	goto	i1l2122
  5792  0086                     u43_20:	
  5793  0086                     i1l2120:	
  5794  0086  3006               	movlw	6
  5795  0087  2889               	goto	i1l283
  5796  0088                     i1l2122:	
  5797  0088  3003               	movlw	3
  5798  0089                     i1l283:	
  5799  0089  0008               	return
  5800  008A                     __end_of_I2C1_DO_TX:	
  5801                           
  5802                           	psect	text38
  5803  039D                     __ptext38:	
  5804 ;; *************** function _I2C1_DO_SEND_ADR_WRITE *****************
  5805 ;; Defined at:
  5806 ;;		line 349 in file "mcc_generated_files/i2c1_master.c"
  5807 ;; Parameters:    Size  Location     Type
  5808 ;;		None
  5809 ;; Auto vars:     Size  Location     Type
  5810 ;;		None
  5811 ;; Return value:  Size  Location     Type
  5812 ;;                  1    wreg      enum E7156
  5813 ;; Registers used:
  5814 ;;		wreg, status,2, status,0, pclath, cstack
  5815 ;; Tracked objects:
  5816 ;;		On entry : 0/0
  5817 ;;		On exit  : 0/0
  5818 ;;		Unchanged: 0/0
  5819 ;; Data sizes:     COMMON   BANK0   BANK1   BANK2   BANK3   BANK4   BANK5   BANK6   BANK7   BANK8   BANK9  BANK10  BANK1
      +1  BANK12  BANK13  BANK14  BANK15  BANK16  BANK17  BANK18  BANK19  BANK20  BANK21  BANK22  BANK23  BANK24  BANK25
  5820 ;;      Params:         0       0       0       0       0       0       0       0       0       0       0       0       
      +0       0       0       0       0       0       0       0       0       0       0       0       0       0       0
  5821 ;;      Locals:         0       0       0       0       0       0       0       0       0       0       0       0       
      +0       0       0       0       0       0       0       0       0       0       0       0       0       0       0
  5822 ;;      Temps:          0       0       0       0       0       0       0       0       0       0       0       0       
      +0       0       0       0       0       0       0       0       0       0       0       0       0       0       0
  5823 ;;      Totals:         0       0       0       0       0       0       0       0       0       0       0       0       
      +0       0       0       0       0       0       0       0       0       0       0       0       0       0       0
  5824 ;;Total ram usage:        0 bytes
  5825 ;; Hardware stack levels used:    1
  5826 ;; Hardware stack levels required when called:    1
  5827 ;; This function calls:
  5828 ;;		_I2C1_MasterSendTxData
  5829 ;; This function is called by:
  5830 ;;		_I2C1_MasterFsm
  5831 ;; This function uses a non-reentrant model
  5832 ;;
  5833                           
  5834                           
  5835                           ;psect for function _I2C1_DO_SEND_ADR_WRITE
  5836  039D                     _I2C1_DO_SEND_ADR_WRITE:	
  5837  039D                     i1l2088:	
  5838                           ;incstack = 0
  5839                           ; Regs used in _I2C1_DO_SEND_ADR_WRITE: [wreg+status,2+status,0+pclath+cstack]
  5840                           
  5841                           
  5842                           ;mcc_generated_files/i2c1_master.c: 351:     I2C1_Status.addressNackCheck = 1;
  5843  039D  0020               	movlb	0	; select bank0
  5844  039E  143C               	bsf	_I2C1_Status+28,0
  5845  039F                     i1l2090:	
  5846                           
  5847                           ;mcc_generated_files/i2c1_master.c: 352:     I2C1_MasterSendTxData(I2C1_Status.address <
      +                          < 1);
  5848  039F  3536               	lslf	_I2C1_Status+22,w
  5849  03A0  3183  23F0  3183   	fcall	_I2C1_MasterSendTxData
  5850  03A3                     i1l2092:	
  5851                           
  5852                           ;mcc_generated_files/i2c1_master.c: 353:     return I2C1_TX;
  5853  03A3  3003               	movlw	3
  5854  03A4                     i1l277:	
  5855  03A4  0008               	return
  5856  03A5                     __end_of_I2C1_DO_SEND_ADR_WRITE:	
  5857                           
  5858                           	psect	text39
  5859  038C                     __ptext39:	
  5860 ;; *************** function _I2C1_DO_SEND_ADR_READ *****************
  5861 ;; Defined at:
  5862 ;;		line 342 in file "mcc_generated_files/i2c1_master.c"
  5863 ;; Parameters:    Size  Location     Type
  5864 ;;		None
  5865 ;; Auto vars:     Size  Location     Type
  5866 ;;		None
  5867 ;; Return value:  Size  Location     Type
  5868 ;;                  1    wreg      enum E7156
  5869 ;; Registers used:
  5870 ;;		wreg, status,2, status,0, pclath, cstack
  5871 ;; Tracked objects:
  5872 ;;		On entry : 0/0
  5873 ;;		On exit  : 0/0
  5874 ;;		Unchanged: 0/0
  5875 ;; Data sizes:     COMMON   BANK0   BANK1   BANK2   BANK3   BANK4   BANK5   BANK6   BANK7   BANK8   BANK9  BANK10  BANK1
      +1  BANK12  BANK13  BANK14  BANK15  BANK16  BANK17  BANK18  BANK19  BANK20  BANK21  BANK22  BANK23  BANK24  BANK25
  5876 ;;      Params:         0       0       0       0       0       0       0       0       0       0       0       0       
      +0       0       0       0       0       0       0       0       0       0       0       0       0       0       0
  5877 ;;      Locals:         0       0       0       0       0       0       0       0       0       0       0       0       
      +0       0       0       0       0       0       0       0       0       0       0       0       0       0       0
  5878 ;;      Temps:          0       0       0       0       0       0       0       0       0       0       0       0       
      +0       0       0       0       0       0       0       0       0       0       0       0       0       0       0
  5879 ;;      Totals:         0       0       0       0       0       0       0       0       0       0       0       0       
      +0       0       0       0       0       0       0       0       0       0       0       0       0       0       0
  5880 ;;Total ram usage:        0 bytes
  5881 ;; Hardware stack levels used:    1
  5882 ;; Hardware stack levels required when called:    1
  5883 ;; This function calls:
  5884 ;;		_I2C1_MasterSendTxData
  5885 ;; This function is called by:
  5886 ;;		_I2C1_MasterFsm
  5887 ;; This function uses a non-reentrant model
  5888 ;;
  5889                           
  5890                           
  5891                           ;psect for function _I2C1_DO_SEND_ADR_READ
  5892  038C                     _I2C1_DO_SEND_ADR_READ:	
  5893  038C                     i1l2080:	
  5894                           ;incstack = 0
  5895                           ; Regs used in _I2C1_DO_SEND_ADR_READ: [wreg+status,2+status,0+pclath+cstack]
  5896                           
  5897                           
  5898                           ;mcc_generated_files/i2c1_master.c: 344:     I2C1_Status.addressNackCheck = 1;
  5899  038C  0020               	movlb	0	; select bank0
  5900  038D  143C               	bsf	_I2C1_Status+28,0
  5901  038E                     i1l2082:	
  5902                           
  5903                           ;mcc_generated_files/i2c1_master.c: 345:     I2C1_MasterSendTxData(I2C1_Status.address <
      +                          < 1 | 1);
  5904  038E  1403               	setc
  5905  038F  0D36               	rlf	_I2C1_Status+22,w
  5906  0390  3183  23F0  3183   	fcall	_I2C1_MasterSendTxData
  5907  0393                     i1l2084:	
  5908                           
  5909                           ;mcc_generated_files/i2c1_master.c: 346:     return I2C1_RCEN;
  5910  0393  3005               	movlw	5
  5911  0394                     i1l274:	
  5912  0394  0008               	return
  5913  0395                     __end_of_I2C1_DO_SEND_ADR_READ:	
  5914                           
  5915                           	psect	text40
  5916  03EB                     __ptext40:	
  5917 ;; *************** function _I2C1_DO_IDLE *****************
  5918 ;; Defined at:
  5919 ;;		line 335 in file "mcc_generated_files/i2c1_master.c"
  5920 ;; Parameters:    Size  Location     Type
  5921 ;;		None
  5922 ;; Auto vars:     Size  Location     Type
  5923 ;;		None
  5924 ;; Return value:  Size  Location     Type
  5925 ;;                  1    wreg      enum E7156
  5926 ;; Registers used:
  5927 ;;		wreg, status,2
  5928 ;; Tracked objects:
  5929 ;;		On entry : 0/0
  5930 ;;		On exit  : 0/0
  5931 ;;		Unchanged: 0/0
  5932 ;; Data sizes:     COMMON   BANK0   BANK1   BANK2   BANK3   BANK4   BANK5   BANK6   BANK7   BANK8   BANK9  BANK10  BANK1
      +1  BANK12  BANK13  BANK14  BANK15  BANK16  BANK17  BANK18  BANK19  BANK20  BANK21  BANK22  BANK23  BANK24  BANK25
  5933 ;;      Params:         0       0       0       0       0       0       0       0       0       0       0       0       
      +0       0       0       0       0       0       0       0       0       0       0       0       0       0       0
  5934 ;;      Locals:         0       0       0       0       0       0       0       0       0       0       0       0       
      +0       0       0       0       0       0       0       0       0       0       0       0       0       0       0
  5935 ;;      Temps:          0       0       0       0       0       0       0       0       0       0       0       0       
      +0       0       0       0       0       0       0       0       0       0       0       0       0       0       0
  5936 ;;      Totals:         0       0       0       0       0       0       0       0       0       0       0       0       
      +0       0       0       0       0       0       0       0       0       0       0       0       0       0       0
  5937 ;;Total ram usage:        0 bytes
  5938 ;; Hardware stack levels used:    1
  5939 ;; This function calls:
  5940 ;;		Nothing
  5941 ;; This function is called by:
  5942 ;;		_I2C1_MasterFsm
  5943 ;; This function uses a non-reentrant model
  5944 ;;
  5945                           
  5946                           
  5947                           ;psect for function _I2C1_DO_IDLE
  5948  03EB                     _I2C1_DO_IDLE:	
  5949  03EB                     i1l2072:	
  5950                           ;incstack = 0
  5951                           ; Regs used in _I2C1_DO_IDLE: [wreg+status,2]
  5952                           
  5953                           
  5954                           ;mcc_generated_files/i2c1_master.c: 337:     I2C1_Status.busy = 0;
  5955  03EB  0020               	movlb	0	; select bank0
  5956  03EC  10BC               	bcf	_I2C1_Status+28,1
  5957  03ED                     i1l2074:	
  5958                           
  5959                           ;mcc_generated_files/i2c1_master.c: 338:     I2C1_Status.error = I2C1_NOERR;
  5960  03ED  01BB               	clrf	_I2C1_Status+27
  5961  03EE                     i1l2076:	
  5962                           
  5963                           ;mcc_generated_files/i2c1_master.c: 339:     return I2C1_RESET;
  5964  03EE  300E               	movlw	14
  5965  03EF                     i1l271:	
  5966  03EF  0008               	return
  5967  03F0                     __end_of_I2C1_DO_IDLE:	
  5968                           
  5969                           	psect	text41
  5970  0149                     __ptext41:	
  5971 ;; *************** function _I2C1_DO_TX_EMPTY *****************
  5972 ;; Defined at:
  5973 ;;		line 411 in file "mcc_generated_files/i2c1_master.c"
  5974 ;; Parameters:    Size  Location     Type
  5975 ;;		None
  5976 ;; Auto vars:     Size  Location     Type
  5977 ;;		None
  5978 ;; Return value:  Size  Location     Type
  5979 ;;                  1    wreg      enum E7156
  5980 ;; Registers used:
  5981 ;;		wreg, fsr0l, fsr0h, fsr1l, fsr1h, status,2, status,0, pclath, cstack
  5982 ;; Tracked objects:
  5983 ;;		On entry : 0/0
  5984 ;;		On exit  : 0/0
  5985 ;;		Unchanged: 0/0
  5986 ;; Data sizes:     COMMON   BANK0   BANK1   BANK2   BANK3   BANK4   BANK5   BANK6   BANK7   BANK8   BANK9  BANK10  BANK1
      +1  BANK12  BANK13  BANK14  BANK15  BANK16  BANK17  BANK18  BANK19  BANK20  BANK21  BANK22  BANK23  BANK24  BANK25
  5987 ;;      Params:         0       0       0       0       0       0       0       0       0       0       0       0       
      +0       0       0       0       0       0       0       0       0       0       0       0       0       0       0
  5988 ;;      Locals:         0       0       0       0       0       0       0       0       0       0       0       0       
      +0       0       0       0       0       0       0       0       0       0       0       0       0       0       0
  5989 ;;      Temps:          3       0       0       0       0       0       0       0       0       0       0       0       
      +0       0       0       0       0       0       0       0       0       0       0       0       0       0       0
  5990 ;;      Totals:         3       0       0       0       0       0       0       0       0       0       0       0       
      +0       0       0       0       0       0       0       0       0       0       0       0       0       0       0
  5991 ;;Total ram usage:        3 bytes
  5992 ;; Hardware stack levels used:    1
  5993 ;; Hardware stack levels required when called:    3
  5994 ;; This function calls:
  5995 ;;		Absolute function
  5996 ;;		_I2C1_CallbackReturnReset
  5997 ;;		_I2C1_CallbackReturnStop
  5998 ;;		_I2C1_DO_SEND_RESTART
  5999 ;;		_I2C1_DO_SEND_STOP
  6000 ;;		_I2C1_MasterSetIrq
  6001 ;;		_rd1RegCompleteHandler
  6002 ;;		_rd2RegCompleteHandler
  6003 ;;		_rdBlkRegCompleteHandler
  6004 ;;		_wr1RegCompleteHandler
  6005 ;;		_wr2RegCompleteHandler
  6006 ;; This function is called by:
  6007 ;;		_I2C1_MasterFsm
  6008 ;; This function uses a non-reentrant model
  6009 ;;
  6010                           
  6011                           
  6012                           ;psect for function _I2C1_DO_TX_EMPTY
  6013  0149                     _I2C1_DO_TX_EMPTY:	
  6014  0149                     i1l2168:	
  6015                           ;incstack = 0
  6016                           ; Regs used in _I2C1_DO_TX_EMPTY: [wreg-fsr1h+status,2+status,0+pclath+cstack]
  6017                           
  6018                           
  6019                           ;mcc_generated_files/i2c1_master.c: 413:     I2C1_Status.bufferFree = 1;
  6020  0149  0020               	movlb	0	; select bank0
  6021  014A  15BC               	bsf	_I2C1_Status+28,3
  6022                           
  6023                           ;mcc_generated_files/i2c1_master.c: 414:     switch(I2C1_Status.callbackTable[I2C1_DATA_
      +                          COMPLETE](I2C1_Status.callbackPayload[I2C1_DATA_COMPLETE]))
  6024  014B  2959               	goto	i1l2186
  6025  014C                     i1l2170:	
  6026                           
  6027                           ;mcc_generated_files/i2c1_master.c: 418:             return I2C1_DO_SEND_RESTART();
  6028  014C  3183  23DC  3181   	fcall	_I2C1_DO_SEND_RESTART
  6029  014F  2977               	goto	i1l314
  6030  0150                     i1l2174:	
  6031                           
  6032                           ;mcc_generated_files/i2c1_master.c: 420:             I2C1_MasterSetIrq();
  6033  0150  3184  2417  3181   	fcall	_I2C1_MasterSetIrq
  6034  0153                     i1l2176:	
  6035                           
  6036                           ;mcc_generated_files/i2c1_master.c: 421:             return I2C1_TX;
  6037  0153  3003               	movlw	3
  6038  0154  2977               	goto	i1l314
  6039  0155                     i1l2180:	
  6040                           
  6041                           ;mcc_generated_files/i2c1_master.c: 424:             return I2C1_DO_SEND_STOP();
  6042  0155  3183  23D7  3181   	fcall	_I2C1_DO_SEND_STOP
  6043  0158  2977               	goto	i1l314
  6044  0159                     i1l2186:	
  6045  0159  082C               	movf	low ((_I2C1_Status| 0+12)),w
  6046  015A  00FA               	movwf	??_I2C1_DO_TX_EMPTY
  6047  015B  087A               	movf	??_I2C1_DO_TX_EMPTY,w
  6048  015C  00F9               	movwf	I2C1_CallbackReturnReset@funPtr
  6049  015D  0821               	movf	_I2C1_Status+1,w
  6050  015E  008A               	movwf	10
  6051  015F  0820               	movf	_I2C1_Status,w
  6052  0160  000A               	callw
  6053  0161  3181               	pagesel	$
  6054  0162  00FB               	movwf	??_I2C1_DO_TX_EMPTY+1
  6055  0163  01FC               	clrf	??_I2C1_DO_TX_EMPTY+2
  6056                           
  6057                           ; Switch on 2 bytes has been partitioned into a top level switch of size 1, and 1 sub-sw
      +                          itches
  6058                           ; Switch size 1, requested type "simple"
  6059                           ; Number of cases is 1, Range of values is 0 to 0
  6060                           ; switch strategies available:
  6061                           ; Name         Instructions Cycles
  6062                           ; simple_byte            4     3 (average)
  6063                           ; direct_byte            8     6 (fixed)
  6064                           ; jumptable            260     6 (fixed)
  6065                           ;	Chosen strategy is simple_byte
  6066  0164  087C               	movf	??_I2C1_DO_TX_EMPTY+2,w
  6067  0165  3A00               	xorlw	0	; case 0
  6068  0166  1903               	skipnz
  6069  0167  2969               	goto	i1l2600
  6070  0168  2955               	goto	i1l2180
  6071  0169                     i1l2600:	
  6072                           
  6073                           ; Switch size 1, requested type "simple"
  6074                           ; Number of cases is 4, Range of values is 1 to 4
  6075                           ; switch strategies available:
  6076                           ; Name         Instructions Cycles
  6077                           ; simple_byte           13     7 (average)
  6078                           ; direct_byte           17     9 (fixed)
  6079                           ; jumptable            263     9 (fixed)
  6080                           ;	Chosen strategy is simple_byte
  6081  0169  087B               	movf	??_I2C1_DO_TX_EMPTY+1,w
  6082  016A  3A01               	xorlw	1	; case 1
  6083  016B  1903               	skipnz
  6084  016C  2955               	goto	i1l2180
  6085  016D  3A03               	xorlw	3	; case 2
  6086  016E  1903               	skipnz
  6087  016F  294C               	goto	i1l2170
  6088  0170  3A01               	xorlw	1	; case 3
  6089  0171  1903               	skipnz
  6090  0172  294C               	goto	i1l2170
  6091  0173  3A07               	xorlw	7	; case 4
  6092  0174  1903               	skipnz
  6093  0175  2950               	goto	i1l2174
  6094  0176  2955               	goto	i1l2180
  6095  0177                     i1l314:	
  6096  0177  0008               	return
  6097  0178                     __end_of_I2C1_DO_TX_EMPTY:	
  6098                           
  6099                           	psect	text42
  6100  0417                     __ptext42:	
  6101 ;; *************** function _I2C1_MasterSetIrq *****************
  6102 ;; Defined at:
  6103 ;;		line 647 in file "mcc_generated_files/i2c1_master.c"
  6104 ;; Parameters:    Size  Location     Type
  6105 ;;		None
  6106 ;; Auto vars:     Size  Location     Type
  6107 ;;		None
  6108 ;; Return value:  Size  Location     Type
  6109 ;;                  1    wreg      void 
  6110 ;; Registers used:
  6111 ;;		None
  6112 ;; Tracked objects:
  6113 ;;		On entry : 0/0
  6114 ;;		On exit  : 0/0
  6115 ;;		Unchanged: 0/0
  6116 ;; Data sizes:     COMMON   BANK0   BANK1   BANK2   BANK3   BANK4   BANK5   BANK6   BANK7   BANK8   BANK9  BANK10  BANK1
      +1  BANK12  BANK13  BANK14  BANK15  BANK16  BANK17  BANK18  BANK19  BANK20  BANK21  BANK22  BANK23  BANK24  BANK25
  6117 ;;      Params:         0       0       0       0       0       0       0       0       0       0       0       0       
      +0       0       0       0       0       0       0       0       0       0       0       0       0       0       0
  6118 ;;      Locals:         0       0       0       0       0       0       0       0       0       0       0       0       
      +0       0       0       0       0       0       0       0       0       0       0       0       0       0       0
  6119 ;;      Temps:          0       0       0       0       0       0       0       0       0       0       0       0       
      +0       0       0       0       0       0       0       0       0       0       0       0       0       0       0
  6120 ;;      Totals:         0       0       0       0       0       0       0       0       0       0       0       0       
      +0       0       0       0       0       0       0       0       0       0       0       0       0       0       0
  6121 ;;Total ram usage:        0 bytes
  6122 ;; Hardware stack levels used:    1
  6123 ;; This function calls:
  6124 ;;		Nothing
  6125 ;; This function is called by:
  6126 ;;		_I2C1_DO_TX_EMPTY
  6127 ;; This function uses a non-reentrant model
  6128 ;;
  6129                           
  6130                           
  6131                           ;psect for function _I2C1_MasterSetIrq
  6132  0417                     _I2C1_MasterSetIrq:	
  6133  0417                     i1l2016:	
  6134                           ;incstack = 0
  6135                           ; Regs used in _I2C1_MasterSetIrq: []
  6136                           
  6137                           
  6138                           ;mcc_generated_files/i2c1_master.c: 649:     PIR1bits.SSP1IF = 1;
  6139  0417  0020               	movlb	0	; select bank0
  6140  0418  1591               	bsf	17,3	;volatile
  6141  0419                     i1l434:	
  6142  0419  0008               	return
  6143  041A                     __end_of_I2C1_MasterSetIrq:	
  6144                           
  6145                           	psect	text43
  6146  03B8                     __ptext43:	
  6147 ;; *************** function _I2C1_MasterIsNack *****************
  6148 ;; Defined at:
  6149 ;;		line 599 in file "mcc_generated_files/i2c1_master.c"
  6150 ;; Parameters:    Size  Location     Type
  6151 ;;		None
  6152 ;; Auto vars:     Size  Location     Type
  6153 ;;		None
  6154 ;; Return value:  Size  Location     Type
  6155 ;;                  1    wreg      _Bool 
  6156 ;; Registers used:
  6157 ;;		wreg, status,2, status,0
  6158 ;; Tracked objects:
  6159 ;;		On entry : 0/0
  6160 ;;		On exit  : 0/0
  6161 ;;		Unchanged: 0/0
  6162 ;; Data sizes:     COMMON   BANK0   BANK1   BANK2   BANK3   BANK4   BANK5   BANK6   BANK7   BANK8   BANK9  BANK10  BANK1
      +1  BANK12  BANK13  BANK14  BANK15  BANK16  BANK17  BANK18  BANK19  BANK20  BANK21  BANK22  BANK23  BANK24  BANK25
  6163 ;;      Params:         0       0       0       0       0       0       0       0       0       0       0       0       
      +0       0       0       0       0       0       0       0       0       0       0       0       0       0       0
  6164 ;;      Locals:         0       0       0       0       0       0       0       0       0       0       0       0       
      +0       0       0       0       0       0       0       0       0       0       0       0       0       0       0
  6165 ;;      Temps:          0       0       0       0       0       0       0       0       0       0       0       0       
      +0       0       0       0       0       0       0       0       0       0       0       0       0       0       0
  6166 ;;      Totals:         0       0       0       0       0       0       0       0       0       0       0       0       
      +0       0       0       0       0       0       0       0       0       0       0       0       0       0       0
  6167 ;;Total ram usage:        0 bytes
  6168 ;; Hardware stack levels used:    1
  6169 ;; This function calls:
  6170 ;;		Nothing
  6171 ;; This function is called by:
  6172 ;;		_I2C1_MasterFsm
  6173 ;;		_I2C1_DO_TX
  6174 ;; This function uses a non-reentrant model
  6175 ;;
  6176                           
  6177                           
  6178                           ;psect for function _I2C1_MasterIsNack
  6179  03B8                     _I2C1_MasterIsNack:	
  6180  03B8                     i1l1966:	
  6181                           ;incstack = 0
  6182                           ; Regs used in _I2C1_MasterIsNack: [wreg+status,2+status,0]
  6183                           
  6184                           
  6185                           ;mcc_generated_files/i2c1_master.c: 601:     return SSP1CON2bits.ACKSTAT;
  6186  03B8  0024               	movlb	4	; select bank4
  6187  03B9  0E16               	swapf	22,w	;volatile
  6188  03BA  0C89               	rrf	9,f
  6189  03BB  0C89               	rrf	9,f
  6190  03BC  3901               	andlw	1
  6191  03BD                     i1l407:	
  6192  03BD  0008               	return
  6193  03BE                     __end_of_I2C1_MasterIsNack:	
  6194                           
  6195                           	psect	text44
  6196  03F0                     __ptext44:	
  6197 ;; *************** function _I2C1_MasterSendTxData *****************
  6198 ;; Defined at:
  6199 ;;		line 569 in file "mcc_generated_files/i2c1_master.c"
  6200 ;; Parameters:    Size  Location     Type
  6201 ;;  data            1    wreg     unsigned char 
  6202 ;; Auto vars:     Size  Location     Type
  6203 ;;  data            1    0[COMMON] unsigned char 
  6204 ;; Return value:  Size  Location     Type
  6205 ;;                  1    wreg      void 
  6206 ;; Registers used:
  6207 ;;		wreg
  6208 ;; Tracked objects:
  6209 ;;		On entry : 0/0
  6210 ;;		On exit  : 0/0
  6211 ;;		Unchanged: 0/0
  6212 ;; Data sizes:     COMMON   BANK0   BANK1   BANK2   BANK3   BANK4   BANK5   BANK6   BANK7   BANK8   BANK9  BANK10  BANK1
      +1  BANK12  BANK13  BANK14  BANK15  BANK16  BANK17  BANK18  BANK19  BANK20  BANK21  BANK22  BANK23  BANK24  BANK25
  6213 ;;      Params:         0       0       0       0       0       0       0       0       0       0       0       0       
      +0       0       0       0       0       0       0       0       0       0       0       0       0       0       0
  6214 ;;      Locals:         1       0       0       0       0       0       0       0       0       0       0       0       
      +0       0       0       0       0       0       0       0       0       0       0       0       0       0       0
  6215 ;;      Temps:          0       0       0       0       0       0       0       0       0       0       0       0       
      +0       0       0       0       0       0       0       0       0       0       0       0       0       0       0
  6216 ;;      Totals:         1       0       0       0       0       0       0       0       0       0       0       0       
      +0       0       0       0       0       0       0       0       0       0       0       0       0       0       0
  6217 ;;Total ram usage:        1 bytes
  6218 ;; Hardware stack levels used:    1
  6219 ;; This function calls:
  6220 ;;		Nothing
  6221 ;; This function is called by:
  6222 ;;		_I2C1_DO_SEND_ADR_READ
  6223 ;;		_I2C1_DO_SEND_ADR_WRITE
  6224 ;;		_I2C1_DO_TX
  6225 ;; This function uses a non-reentrant model
  6226 ;;
  6227                           
  6228                           
  6229                           ;psect for function _I2C1_MasterSendTxData
  6230  03F0                     _I2C1_MasterSendTxData:	
  6231                           
  6232                           ;incstack = 0
  6233                           ; Regs used in _I2C1_MasterSendTxData: [wreg]
  6234                           ;I2C1_MasterSendTxData@data stored from wreg
  6235  03F0  00F0               	movwf	I2C1_MasterSendTxData@data
  6236  03F1                     i1l1970:	
  6237                           
  6238                           ;mcc_generated_files/i2c1_master.c: 569: static __attribute__((inline)) void I2C1_Master
      +                          SendTxData(uint8_t data);mcc_generated_files/i2c1_master.c: 570: {;mcc_generated_files/i
      +                          2c1_master.c: 571:     SSP1BUF = data;
  6239  03F1  0870               	movf	I2C1_MasterSendTxData@data,w
  6240  03F2  0024               	movlb	4	; select bank4
  6241  03F3  0091               	movwf	17	;volatile
  6242  03F4                     i1l389:	
  6243  03F4  0008               	return
  6244  03F5                     __end_of_I2C1_MasterSendTxData:	
  6245                           
  6246                           	psect	text45
  6247  03FD                     __ptext45:	
  6248 ;; *************** function _I2C1_MasterSendAck *****************
  6249 ;; Defined at:
  6250 ;;		line 604 in file "mcc_generated_files/i2c1_master.c"
  6251 ;; Parameters:    Size  Location     Type
  6252 ;;		None
  6253 ;; Auto vars:     Size  Location     Type
  6254 ;;		None
  6255 ;; Return value:  Size  Location     Type
  6256 ;;                  1    wreg      void 
  6257 ;; Registers used:
  6258 ;;		None
  6259 ;; Tracked objects:
  6260 ;;		On entry : 0/0
  6261 ;;		On exit  : 0/0
  6262 ;;		Unchanged: 0/0
  6263 ;; Data sizes:     COMMON   BANK0   BANK1   BANK2   BANK3   BANK4   BANK5   BANK6   BANK7   BANK8   BANK9  BANK10  BANK1
      +1  BANK12  BANK13  BANK14  BANK15  BANK16  BANK17  BANK18  BANK19  BANK20  BANK21  BANK22  BANK23  BANK24  BANK25
  6264 ;;      Params:         0       0       0       0       0       0       0       0       0       0       0       0       
      +0       0       0       0       0       0       0       0       0       0       0       0       0       0       0
  6265 ;;      Locals:         0       0       0       0       0       0       0       0       0       0       0       0       
      +0       0       0       0       0       0       0       0       0       0       0       0       0       0       0
  6266 ;;      Temps:          0       0       0       0       0       0       0       0       0       0       0       0       
      +0       0       0       0       0       0       0       0       0       0       0       0       0       0       0
  6267 ;;      Totals:         0       0       0       0       0       0       0       0       0       0       0       0       
      +0       0       0       0       0       0       0       0       0       0       0       0       0       0       0
  6268 ;;Total ram usage:        0 bytes
  6269 ;; Hardware stack levels used:    1
  6270 ;; This function calls:
  6271 ;;		Nothing
  6272 ;; This function is called by:
  6273 ;;		_I2C1_DO_RX
  6274 ;;		_I2C1_DO_RX_ACK
  6275 ;; This function uses a non-reentrant model
  6276 ;;
  6277                           
  6278                           
  6279                           ;psect for function _I2C1_MasterSendAck
  6280  03FD                     _I2C1_MasterSendAck:	
  6281  03FD                     i1l1994:	
  6282                           ;incstack = 0
  6283                           ; Regs used in _I2C1_MasterSendAck: []
  6284                           
  6285                           
  6286                           ;mcc_generated_files/i2c1_master.c: 606:     SSP1CON2bits.ACKDT = 0;
  6287  03FD  0024               	movlb	4	; select bank4
  6288  03FE  1296               	bcf	22,5	;volatile
  6289                           
  6290                           ;mcc_generated_files/i2c1_master.c: 607:     SSP1CON2bits.ACKEN = 1;
  6291  03FF  1616               	bsf	22,4	;volatile
  6292  0400                     i1l410:	
  6293  0400  0008               	return
  6294  0401                     __end_of_I2C1_MasterSendAck:	
  6295                           
  6296                           	psect	text46
  6297  041A                     __ptext46:	
  6298 ;; *************** function _I2C1_MasterGetRxData *****************
  6299 ;; Defined at:
  6300 ;;		line 564 in file "mcc_generated_files/i2c1_master.c"
  6301 ;; Parameters:    Size  Location     Type
  6302 ;;		None
  6303 ;; Auto vars:     Size  Location     Type
  6304 ;;		None
  6305 ;; Return value:  Size  Location     Type
  6306 ;;                  1    wreg      unsigned char 
  6307 ;; Registers used:
  6308 ;;		wreg
  6309 ;; Tracked objects:
  6310 ;;		On entry : 0/0
  6311 ;;		On exit  : 0/0
  6312 ;;		Unchanged: 0/0
  6313 ;; Data sizes:     COMMON   BANK0   BANK1   BANK2   BANK3   BANK4   BANK5   BANK6   BANK7   BANK8   BANK9  BANK10  BANK1
      +1  BANK12  BANK13  BANK14  BANK15  BANK16  BANK17  BANK18  BANK19  BANK20  BANK21  BANK22  BANK23  BANK24  BANK25
  6314 ;;      Params:         0       0       0       0       0       0       0       0       0       0       0       0       
      +0       0       0       0       0       0       0       0       0       0       0       0       0       0       0
  6315 ;;      Locals:         0       0       0       0       0       0       0       0       0       0       0       0       
      +0       0       0       0       0       0       0       0       0       0       0       0       0       0       0
  6316 ;;      Temps:          0       0       0       0       0       0       0       0       0       0       0       0       
      +0       0       0       0       0       0       0       0       0       0       0       0       0       0       0
  6317 ;;      Totals:         0       0       0       0       0       0       0       0       0       0       0       0       
      +0       0       0       0       0       0       0       0       0       0       0       0       0       0       0
  6318 ;;Total ram usage:        0 bytes
  6319 ;; Hardware stack levels used:    1
  6320 ;; This function calls:
  6321 ;;		Nothing
  6322 ;; This function is called by:
  6323 ;;		_I2C1_DO_RX
  6324 ;; This function uses a non-reentrant model
  6325 ;;
  6326                           
  6327                           
  6328                           ;psect for function _I2C1_MasterGetRxData
  6329  041A                     _I2C1_MasterGetRxData:	
  6330  041A                     i1l1990:	
  6331                           ;incstack = 0
  6332                           ; Regs used in _I2C1_MasterGetRxData: [wreg]
  6333                           
  6334                           
  6335                           ;mcc_generated_files/i2c1_master.c: 566:     return SSP1BUF;
  6336  041A  0024               	movlb	4	; select bank4
  6337  041B  0811               	movf	17,w	;volatile
  6338  041C                     i1l386:	
  6339  041C  0008               	return
  6340  041D                     __end_of_I2C1_MasterGetRxData:	
  6341                           
  6342                           	psect	text47
  6343  0401                     __ptext47:	
  6344 ;; *************** function _I2C1_MasterSendNack *****************
  6345 ;; Defined at:
  6346 ;;		line 610 in file "mcc_generated_files/i2c1_master.c"
  6347 ;; Parameters:    Size  Location     Type
  6348 ;;		None
  6349 ;; Auto vars:     Size  Location     Type
  6350 ;;		None
  6351 ;; Return value:  Size  Location     Type
  6352 ;;                  1    wreg      void 
  6353 ;; Registers used:
  6354 ;;		None
  6355 ;; Tracked objects:
  6356 ;;		On entry : 0/0
  6357 ;;		On exit  : 0/0
  6358 ;;		Unchanged: 0/0
  6359 ;; Data sizes:     COMMON   BANK0   BANK1   BANK2   BANK3   BANK4   BANK5   BANK6   BANK7   BANK8   BANK9  BANK10  BANK1
      +1  BANK12  BANK13  BANK14  BANK15  BANK16  BANK17  BANK18  BANK19  BANK20  BANK21  BANK22  BANK23  BANK24  BANK25
  6360 ;;      Params:         0       0       0       0       0       0       0       0       0       0       0       0       
      +0       0       0       0       0       0       0       0       0       0       0       0       0       0       0
  6361 ;;      Locals:         0       0       0       0       0       0       0       0       0       0       0       0       
      +0       0       0       0       0       0       0       0       0       0       0       0       0       0       0
  6362 ;;      Temps:          0       0       0       0       0       0       0       0       0       0       0       0       
      +0       0       0       0       0       0       0       0       0       0       0       0       0       0       0
  6363 ;;      Totals:         0       0       0       0       0       0       0       0       0       0       0       0       
      +0       0       0       0       0       0       0       0       0       0       0       0       0       0       0
  6364 ;;Total ram usage:        0 bytes
  6365 ;; Hardware stack levels used:    1
  6366 ;; This function calls:
  6367 ;;		Nothing
  6368 ;; This function is called by:
  6369 ;;		_I2C1_DO_RX_NACK_STOP
  6370 ;;		_I2C1_DO_RX_NACK_RESTART
  6371 ;; This function uses a non-reentrant model
  6372 ;;
  6373                           
  6374                           
  6375                           ;psect for function _I2C1_MasterSendNack
  6376  0401                     _I2C1_MasterSendNack:	
  6377  0401                     i1l1918:	
  6378                           ;incstack = 0
  6379                           ; Regs used in _I2C1_MasterSendNack: []
  6380                           
  6381                           
  6382                           ;mcc_generated_files/i2c1_master.c: 612:     SSP1CON2bits.ACKDT = 1;
  6383  0401  0024               	movlb	4	; select bank4
  6384  0402  1696               	bsf	22,5	;volatile
  6385                           
  6386                           ;mcc_generated_files/i2c1_master.c: 613:     SSP1CON2bits.ACKEN = 1;
  6387  0403  1616               	bsf	22,4	;volatile
  6388  0404                     i1l413:	
  6389  0404  0008               	return
  6390  0405                     __end_of_I2C1_MasterSendNack:	
  6391                           
  6392                           	psect	text48
  6393  041D                     __ptext48:	
  6394 ;; *************** function _I2C1_MasterStartRx *****************
  6395 ;; Defined at:
  6396 ;;		line 584 in file "mcc_generated_files/i2c1_master.c"
  6397 ;; Parameters:    Size  Location     Type
  6398 ;;		None
  6399 ;; Auto vars:     Size  Location     Type
  6400 ;;		None
  6401 ;; Return value:  Size  Location     Type
  6402 ;;                  1    wreg      void 
  6403 ;; Registers used:
  6404 ;;		None
  6405 ;; Tracked objects:
  6406 ;;		On entry : 0/0
  6407 ;;		On exit  : 0/0
  6408 ;;		Unchanged: 0/0
  6409 ;; Data sizes:     COMMON   BANK0   BANK1   BANK2   BANK3   BANK4   BANK5   BANK6   BANK7   BANK8   BANK9  BANK10  BANK1
      +1  BANK12  BANK13  BANK14  BANK15  BANK16  BANK17  BANK18  BANK19  BANK20  BANK21  BANK22  BANK23  BANK24  BANK25
  6410 ;;      Params:         0       0       0       0       0       0       0       0       0       0       0       0       
      +0       0       0       0       0       0       0       0       0       0       0       0       0       0       0
  6411 ;;      Locals:         0       0       0       0       0       0       0       0       0       0       0       0       
      +0       0       0       0       0       0       0       0       0       0       0       0       0       0       0
  6412 ;;      Temps:          0       0       0       0       0       0       0       0       0       0       0       0       
      +0       0       0       0       0       0       0       0       0       0       0       0       0       0       0
  6413 ;;      Totals:         0       0       0       0       0       0       0       0       0       0       0       0       
      +0       0       0       0       0       0       0       0       0       0       0       0       0       0       0
  6414 ;;Total ram usage:        0 bytes
  6415 ;; Hardware stack levels used:    1
  6416 ;; This function calls:
  6417 ;;		Nothing
  6418 ;; This function is called by:
  6419 ;;		_I2C1_DO_RCEN
  6420 ;; This function uses a non-reentrant model
  6421 ;;
  6422                           
  6423                           
  6424                           ;psect for function _I2C1_MasterStartRx
  6425  041D                     _I2C1_MasterStartRx:	
  6426  041D                     i1l2008:	
  6427                           ;incstack = 0
  6428                           ; Regs used in _I2C1_MasterStartRx: []
  6429                           
  6430                           
  6431                           ;mcc_generated_files/i2c1_master.c: 586:     SSP1CON2bits.RCEN = 1;
  6432  041D  0024               	movlb	4	; select bank4
  6433  041E  1596               	bsf	22,3	;volatile
  6434  041F                     i1l398:	
  6435  041F  0008               	return
  6436  0420                     __end_of_I2C1_MasterStartRx:	
  6437                           
  6438                           	psect	text49
  6439  0426                     __ptext49:	
  6440 ;; *************** function _I2C1_CallbackReturnReset *****************
  6441 ;; Defined at:
  6442 ;;		line 526 in file "mcc_generated_files/i2c1_master.c"
  6443 ;; Parameters:    Size  Location     Type
  6444 ;;  funPtr          1    9[COMMON] PTR void 
  6445 ;;		 -> I2C1_ReadDataBlock@bufferBlock(3), I2C1_Write2ByteRegister@data(2), I2C1_Write1ByteRegister@data(1), I2C1_Read2B
      +yteRegister@returnValue(2), 
  6446 ;;		 -> NULL(0), I2C1_Read1ByteRegister@returnValue(1), 
  6447 ;; Auto vars:     Size  Location     Type
  6448 ;;		None
  6449 ;; Return value:  Size  Location     Type
  6450 ;;                  1    wreg      enum E358
  6451 ;; Registers used:
  6452 ;;		wreg
  6453 ;; Tracked objects:
  6454 ;;		On entry : 0/0
  6455 ;;		On exit  : 0/0
  6456 ;;		Unchanged: 0/0
  6457 ;; Data sizes:     COMMON   BANK0   BANK1   BANK2   BANK3   BANK4   BANK5   BANK6   BANK7   BANK8   BANK9  BANK10  BANK1
      +1  BANK12  BANK13  BANK14  BANK15  BANK16  BANK17  BANK18  BANK19  BANK20  BANK21  BANK22  BANK23  BANK24  BANK25
  6458 ;;      Params:         1       0       0       0       0       0       0       0       0       0       0       0       
      +0       0       0       0       0       0       0       0       0       0       0       0       0       0       0
  6459 ;;      Locals:         0       0       0       0       0       0       0       0       0       0       0       0       
      +0       0       0       0       0       0       0       0       0       0       0       0       0       0       0
  6460 ;;      Temps:          0       0       0       0       0       0       0       0       0       0       0       0       
      +0       0       0       0       0       0       0       0       0       0       0       0       0       0       0
  6461 ;;      Totals:         1       0       0       0       0       0       0       0       0       0       0       0       
      +0       0       0       0       0       0       0       0       0       0       0       0       0       0       0
  6462 ;;Total ram usage:        1 bytes
  6463 ;; Hardware stack levels used:    1
  6464 ;; This function calls:
  6465 ;;		Nothing
  6466 ;; This function is called by:
  6467 ;;		_I2C1_Open
  6468 ;;		_I2C1_DO_TX
  6469 ;;		_I2C1_DO_RX
  6470 ;;		_I2C1_DO_TX_EMPTY
  6471 ;;		_I2C1_DO_ADDRESS_NACK
  6472 ;;		_I2C1_DO_RX_EMPTY
  6473 ;; This function uses a non-reentrant model
  6474 ;;
  6475                           
  6476                           
  6477                           ;psect for function _I2C1_CallbackReturnReset
  6478  0426                     _I2C1_CallbackReturnReset:	
  6479  0426                     i1l2022:	
  6480                           ;incstack = 0
  6481                           ; Regs used in _I2C1_CallbackReturnReset: [wreg]
  6482                           
  6483                           
  6484                           ;mcc_generated_files/i2c1_master.c: 526: i2c1_operations_t I2C1_CallbackReturnReset(void
      +                           *funPtr);mcc_generated_files/i2c1_master.c: 527: {;mcc_generated_files/i2c1_master.c: 5
      +                          28:     return I2C1_RESET_LINK;
  6485  0426  3005               	movlw	5
  6486  0427                     i1l370:	
  6487  0427  0008               	return
  6488  0428                     __end_of_I2C1_CallbackReturnReset:	
  6489                           
  6490                           	psect	text50
  6491  0428                     __ptext50:	
  6492 ;; *************** function _I2C1_CallbackReturnStop *****************
  6493 ;; Defined at:
  6494 ;;		line 521 in file "mcc_generated_files/i2c1_master.c"
  6495 ;; Parameters:    Size  Location     Type
  6496 ;;  funPtr          1    9[COMMON] PTR void 
  6497 ;;		 -> I2C1_ReadDataBlock@bufferBlock(3), I2C1_Write2ByteRegister@data(2), I2C1_Write1ByteRegister@data(1), I2C1_Read2B
      +yteRegister@returnValue(2), 
  6498 ;;		 -> NULL(0), I2C1_Read1ByteRegister@returnValue(1), 
  6499 ;; Auto vars:     Size  Location     Type
  6500 ;;		None
  6501 ;; Return value:  Size  Location     Type
  6502 ;;                  1    wreg      enum E358
  6503 ;; Registers used:
  6504 ;;		wreg
  6505 ;; Tracked objects:
  6506 ;;		On entry : 0/0
  6507 ;;		On exit  : 0/0
  6508 ;;		Unchanged: 0/0
  6509 ;; Data sizes:     COMMON   BANK0   BANK1   BANK2   BANK3   BANK4   BANK5   BANK6   BANK7   BANK8   BANK9  BANK10  BANK1
      +1  BANK12  BANK13  BANK14  BANK15  BANK16  BANK17  BANK18  BANK19  BANK20  BANK21  BANK22  BANK23  BANK24  BANK25
  6510 ;;      Params:         1       0       0       0       0       0       0       0       0       0       0       0       
      +0       0       0       0       0       0       0       0       0       0       0       0       0       0       0
  6511 ;;      Locals:         0       0       0       0       0       0       0       0       0       0       0       0       
      +0       0       0       0       0       0       0       0       0       0       0       0       0       0       0
  6512 ;;      Temps:          0       0       0       0       0       0       0       0       0       0       0       0       
      +0       0       0       0       0       0       0       0       0       0       0       0       0       0       0
  6513 ;;      Totals:         1       0       0       0       0       0       0       0       0       0       0       0       
      +0       0       0       0       0       0       0       0       0       0       0       0       0       0       0
  6514 ;;Total ram usage:        1 bytes
  6515 ;; Hardware stack levels used:    1
  6516 ;; This function calls:
  6517 ;;		Nothing
  6518 ;; This function is called by:
  6519 ;;		_I2C1_Open
  6520 ;;		_I2C1_SetCallback
  6521 ;;		i1_I2C1_SetCallback
  6522 ;;		_I2C1_DO_TX
  6523 ;;		_I2C1_DO_RX
  6524 ;;		_I2C1_DO_TX_EMPTY
  6525 ;;		_I2C1_DO_ADDRESS_NACK
  6526 ;;		_I2C1_DO_RX_EMPTY
  6527 ;; This function uses a non-reentrant model
  6528 ;;
  6529                           
  6530                           
  6531                           ;psect for function _I2C1_CallbackReturnStop
  6532  0428                     _I2C1_CallbackReturnStop:	
  6533  0428                     i1l2018:	
  6534                           ;incstack = 0
  6535                           ; Regs used in _I2C1_CallbackReturnStop: [wreg]
  6536                           
  6537                           
  6538                           ;mcc_generated_files/i2c1_master.c: 521: i2c1_operations_t I2C1_CallbackReturnStop(void 
      +                          *funPtr);mcc_generated_files/i2c1_master.c: 522: {;mcc_generated_files/i2c1_master.c: 52
      +                          3:     return I2C1_STOP;
  6539  0428  3001               	movlw	1
  6540  0429                     i1l367:	
  6541  0429  0008               	return
  6542  042A                     __end_of_I2C1_CallbackReturnStop:	
  6543                           
  6544                           	psect	text51
  6545  02C4                     __ptext51:	
  6546 ;; *************** function _rdBlkRegCompleteHandler *****************
  6547 ;; Defined at:
  6548 ;;		line 170 in file "mcc_generated_files/examples/i2c1_master_example.c"
  6549 ;; Parameters:    Size  Location     Type
  6550 ;;  ptr             1    9[COMMON] PTR void 
  6551 ;;		 -> I2C1_ReadDataBlock@bufferBlock(3), I2C1_Write2ByteRegister@data(2), I2C1_Write1ByteRegister@data(1), I2C1_Read2B
      +yteRegister@returnValue(2), 
  6552 ;;		 -> NULL(0), I2C1_Read1ByteRegister@returnValue(1), 
  6553 ;; Auto vars:     Size  Location     Type
  6554 ;;		None
  6555 ;; Return value:  Size  Location     Type
  6556 ;;                  1    wreg      enum E358
  6557 ;; Registers used:
  6558 ;;		wreg, fsr1l, fsr1h, status,2, status,0, pclath, cstack
  6559 ;; Tracked objects:
  6560 ;;		On entry : 0/0
  6561 ;;		On exit  : 0/0
  6562 ;;		Unchanged: 0/0
  6563 ;; Data sizes:     COMMON   BANK0   BANK1   BANK2   BANK3   BANK4   BANK5   BANK6   BANK7   BANK8   BANK9  BANK10  BANK1
      +1  BANK12  BANK13  BANK14  BANK15  BANK16  BANK17  BANK18  BANK19  BANK20  BANK21  BANK22  BANK23  BANK24  BANK25
  6564 ;;      Params:         1       0       0       0       0       0       0       0       0       0       0       0       
      +0       0       0       0       0       0       0       0       0       0       0       0       0       0       0
  6565 ;;      Locals:         0       0       0       0       0       0       0       0       0       0       0       0       
      +0       0       0       0       0       0       0       0       0       0       0       0       0       0       0
  6566 ;;      Temps:          0       0       0       0       0       0       0       0       0       0       0       0       
      +0       0       0       0       0       0       0       0       0       0       0       0       0       0       0
  6567 ;;      Totals:         1       0       0       0       0       0       0       0       0       0       0       0       
      +0       0       0       0       0       0       0       0       0       0       0       0       0       0       0
  6568 ;;Total ram usage:        1 bytes
  6569 ;; Hardware stack levels used:    1
  6570 ;; Hardware stack levels required when called:    2
  6571 ;; This function calls:
  6572 ;;		_I2C1_SetDataCompleteCallback
  6573 ;;		i1_I2C1_SetBuffer
  6574 ;; This function is called by:
  6575 ;;		_I2C1_ReadDataBlock
  6576 ;;		_I2C1_DO_TX
  6577 ;;		_I2C1_DO_RX
  6578 ;;		_I2C1_DO_TX_EMPTY
  6579 ;;		_I2C1_DO_ADDRESS_NACK
  6580 ;;		_I2C1_DO_RX_EMPTY
  6581 ;; This function uses a non-reentrant model
  6582 ;;
  6583                           
  6584                           
  6585                           ;psect for function _rdBlkRegCompleteHandler
  6586  02C4                     _rdBlkRegCompleteHandler:	
  6587  02C4                     i1l1958:	
  6588                           ;incstack = 0
  6589                           ; Regs used in _rdBlkRegCompleteHandler: [wreg+fsr1l+fsr1h+status,2+status,0+pclath+csta
      +                          ck]
  6590                           
  6591                           
  6592                           ;mcc_generated_files/examples/i2c1_master_example.c: 170: static i2c1_operations_t rdBlk
      +                          RegCompleteHandler(void *ptr);mcc_generated_files/examples/i2c1_master_example.c: 171: {
      +                          ;mcc_generated_files/examples/i2c1_master_example.c: 172:     I2C1_SetBuffer(((i2c1_buff
      +                          er_t *)ptr)->data,((i2c1_buffer_t*)ptr)->len);
  6593  02C4  0879               	movf	rdBlkRegCompleteHandler@ptr,w
  6594  02C5  0086               	movwf	6
  6595  02C6  0187               	clrf	7
  6596  02C7  3F40               	moviw [0]fsr1
  6597  02C8  00F0               	movwf	i1I2C1_SetBuffer@bufferSize
  6598  02C9  3F41               	moviw [1]fsr1
  6599  02CA  00F1               	movwf	i1I2C1_SetBuffer@bufferSize+1
  6600  02CB  0879               	movf	rdBlkRegCompleteHandler@ptr,w
  6601  02CC  3E02               	addlw	2
  6602  02CD  0086               	movwf	6
  6603  02CE  0187               	clrf	7
  6604  02CF  0801               	movf	1,w
  6605  02D0  3183  2340  3182   	fcall	i1_I2C1_SetBuffer
  6606                           
  6607                           ;mcc_generated_files/examples/i2c1_master_example.c: 173:     I2C1_SetDataCompleteCallba
      +                          ck(((void*)0),((void*)0));
  6608  02D3  3000               	movlw	0
  6609  02D4  00F5               	movwf	I2C1_SetDataCompleteCallback@cb
  6610  02D5  00F6               	movwf	I2C1_SetDataCompleteCallback@cb+1
  6611  02D6  01F7               	clrf	I2C1_SetDataCompleteCallback@ptr
  6612  02D7  3183  236C  3182   	fcall	_I2C1_SetDataCompleteCallback
  6613  02DA                     i1l1960:	
  6614                           
  6615                           ;mcc_generated_files/examples/i2c1_master_example.c: 174:     return I2C1_RESTART_READ;
  6616  02DA  3002               	movlw	2
  6617  02DB                     i1l104:	
  6618  02DB  0008               	return
  6619  02DC                     __end_of_rdBlkRegCompleteHandler:	
  6620                           
  6621                           	psect	text52
  6622  02DC                     __ptext52:	
  6623 ;; *************** function _wr1RegCompleteHandler *****************
  6624 ;; Defined at:
  6625 ;;		line 156 in file "mcc_generated_files/examples/i2c1_master_example.c"
  6626 ;; Parameters:    Size  Location     Type
  6627 ;;  ptr             1    9[COMMON] PTR void 
  6628 ;;		 -> I2C1_ReadDataBlock@bufferBlock(3), I2C1_Write2ByteRegister@data(2), I2C1_Write1ByteRegister@data(1), I2C1_Read2B
      +yteRegister@returnValue(2), 
  6629 ;;		 -> NULL(0), I2C1_Read1ByteRegister@returnValue(1), 
  6630 ;; Auto vars:     Size  Location     Type
  6631 ;;		None
  6632 ;; Return value:  Size  Location     Type
  6633 ;;                  1    wreg      enum E358
  6634 ;; Registers used:
  6635 ;;		wreg, fsr1l, fsr1h, status,2, status,0, pclath, cstack
  6636 ;; Tracked objects:
  6637 ;;		On entry : 0/0
  6638 ;;		On exit  : 0/0
  6639 ;;		Unchanged: 0/0
  6640 ;; Data sizes:     COMMON   BANK0   BANK1   BANK2   BANK3   BANK4   BANK5   BANK6   BANK7   BANK8   BANK9  BANK10  BANK1
      +1  BANK12  BANK13  BANK14  BANK15  BANK16  BANK17  BANK18  BANK19  BANK20  BANK21  BANK22  BANK23  BANK24  BANK25
  6641 ;;      Params:         1       0       0       0       0       0       0       0       0       0       0       0       
      +0       0       0       0       0       0       0       0       0       0       0       0       0       0       0
  6642 ;;      Locals:         0       0       0       0       0       0       0       0       0       0       0       0       
      +0       0       0       0       0       0       0       0       0       0       0       0       0       0       0
  6643 ;;      Temps:          0       0       0       0       0       0       0       0       0       0       0       0       
      +0       0       0       0       0       0       0       0       0       0       0       0       0       0       0
  6644 ;;      Totals:         1       0       0       0       0       0       0       0       0       0       0       0       
      +0       0       0       0       0       0       0       0       0       0       0       0       0       0       0
  6645 ;;Total ram usage:        1 bytes
  6646 ;; Hardware stack levels used:    1
  6647 ;; Hardware stack levels required when called:    2
  6648 ;; This function calls:
  6649 ;;		_I2C1_SetDataCompleteCallback
  6650 ;;		i1_I2C1_SetBuffer
  6651 ;; This function is called by:
  6652 ;;		_I2C1_Write1ByteRegister
  6653 ;;		_I2C1_DO_TX
  6654 ;;		_I2C1_DO_RX
  6655 ;;		_I2C1_DO_TX_EMPTY
  6656 ;;		_I2C1_DO_ADDRESS_NACK
  6657 ;;		_I2C1_DO_RX_EMPTY
  6658 ;; This function uses a non-reentrant model
  6659 ;;
  6660                           
  6661                           
  6662                           ;psect for function _wr1RegCompleteHandler
  6663  02DC                     _wr1RegCompleteHandler:	
  6664  02DC                     i1l1942:	
  6665                           ;incstack = 0
  6666                           ; Regs used in _wr1RegCompleteHandler: [wreg+fsr1l+fsr1h+status,2+status,0+pclath+cstack
      +                          ]
  6667                           
  6668                           
  6669                           ;mcc_generated_files/examples/i2c1_master_example.c: 156: static i2c1_operations_t wr1Re
      +                          gCompleteHandler(void *ptr);mcc_generated_files/examples/i2c1_master_example.c: 157: {;m
      +                          cc_generated_files/examples/i2c1_master_example.c: 158:     I2C1_SetBuffer(ptr,1);
  6670  02DC  3001               	movlw	1
  6671  02DD  00F0               	movwf	i1I2C1_SetBuffer@bufferSize
  6672  02DE  3000               	movlw	0
  6673  02DF  00F1               	movwf	i1I2C1_SetBuffer@bufferSize+1
  6674  02E0  0879               	movf	wr1RegCompleteHandler@ptr,w
  6675  02E1  3183  2340  3182   	fcall	i1_I2C1_SetBuffer
  6676  02E4                     i1l1944:	
  6677                           
  6678                           ;mcc_generated_files/examples/i2c1_master_example.c: 159:     I2C1_SetDataCompleteCallba
      +                          ck(((void*)0),((void*)0));
  6679  02E4  3000               	movlw	0
  6680  02E5  00F5               	movwf	I2C1_SetDataCompleteCallback@cb
  6681  02E6  00F6               	movwf	I2C1_SetDataCompleteCallback@cb+1
  6682  02E7  01F7               	clrf	I2C1_SetDataCompleteCallback@ptr
  6683  02E8  3183  236C  3182   	fcall	_I2C1_SetDataCompleteCallback
  6684  02EB                     i1l1946:	
  6685                           
  6686                           ;mcc_generated_files/examples/i2c1_master_example.c: 160:     return I2C1_CONTINUE;
  6687  02EB  3004               	movlw	4
  6688  02EC                     i1l98:	
  6689  02EC  0008               	return
  6690  02ED                     __end_of_wr1RegCompleteHandler:	
  6691                           
  6692                           	psect	text53
  6693  02ED                     __ptext53:	
  6694 ;; *************** function _rd2RegCompleteHandler *****************
  6695 ;; Defined at:
  6696 ;;		line 149 in file "mcc_generated_files/examples/i2c1_master_example.c"
  6697 ;; Parameters:    Size  Location     Type
  6698 ;;  ptr             1    9[COMMON] PTR void 
  6699 ;;		 -> I2C1_ReadDataBlock@bufferBlock(3), I2C1_Write2ByteRegister@data(2), I2C1_Write1ByteRegister@data(1), I2C1_Read2B
      +yteRegister@returnValue(2), 
  6700 ;;		 -> NULL(0), I2C1_Read1ByteRegister@returnValue(1), 
  6701 ;; Auto vars:     Size  Location     Type
  6702 ;;		None
  6703 ;; Return value:  Size  Location     Type
  6704 ;;                  1    wreg      enum E358
  6705 ;; Registers used:
  6706 ;;		wreg, fsr1l, fsr1h, status,2, status,0, pclath, cstack
  6707 ;; Tracked objects:
  6708 ;;		On entry : 0/0
  6709 ;;		On exit  : 0/0
  6710 ;;		Unchanged: 0/0
  6711 ;; Data sizes:     COMMON   BANK0   BANK1   BANK2   BANK3   BANK4   BANK5   BANK6   BANK7   BANK8   BANK9  BANK10  BANK1
      +1  BANK12  BANK13  BANK14  BANK15  BANK16  BANK17  BANK18  BANK19  BANK20  BANK21  BANK22  BANK23  BANK24  BANK25
  6712 ;;      Params:         1       0       0       0       0       0       0       0       0       0       0       0       
      +0       0       0       0       0       0       0       0       0       0       0       0       0       0       0
  6713 ;;      Locals:         0       0       0       0       0       0       0       0       0       0       0       0       
      +0       0       0       0       0       0       0       0       0       0       0       0       0       0       0
  6714 ;;      Temps:          0       0       0       0       0       0       0       0       0       0       0       0       
      +0       0       0       0       0       0       0       0       0       0       0       0       0       0       0
  6715 ;;      Totals:         1       0       0       0       0       0       0       0       0       0       0       0       
      +0       0       0       0       0       0       0       0       0       0       0       0       0       0       0
  6716 ;;Total ram usage:        1 bytes
  6717 ;; Hardware stack levels used:    1
  6718 ;; Hardware stack levels required when called:    2
  6719 ;; This function calls:
  6720 ;;		_I2C1_SetDataCompleteCallback
  6721 ;;		i1_I2C1_SetBuffer
  6722 ;; This function is called by:
  6723 ;;		_I2C1_Read2ByteRegister
  6724 ;;		_I2C1_DO_TX
  6725 ;;		_I2C1_DO_RX
  6726 ;;		_I2C1_DO_TX_EMPTY
  6727 ;;		_I2C1_DO_ADDRESS_NACK
  6728 ;;		_I2C1_DO_RX_EMPTY
  6729 ;; This function uses a non-reentrant model
  6730 ;;
  6731                           
  6732                           
  6733                           ;psect for function _rd2RegCompleteHandler
  6734  02ED                     _rd2RegCompleteHandler:	
  6735  02ED                     i1l1934:	
  6736                           ;incstack = 0
  6737                           ; Regs used in _rd2RegCompleteHandler: [wreg+fsr1l+fsr1h+status,2+status,0+pclath+cstack
      +                          ]
  6738                           
  6739                           
  6740                           ;mcc_generated_files/examples/i2c1_master_example.c: 149: static i2c1_operations_t rd2Re
      +                          gCompleteHandler(void *ptr);mcc_generated_files/examples/i2c1_master_example.c: 150: {;m
      +                          cc_generated_files/examples/i2c1_master_example.c: 151:     I2C1_SetBuffer(ptr,2);
  6741  02ED  3002               	movlw	2
  6742  02EE  00F0               	movwf	i1I2C1_SetBuffer@bufferSize
  6743  02EF  3000               	movlw	0
  6744  02F0  00F1               	movwf	i1I2C1_SetBuffer@bufferSize+1
  6745  02F1  0879               	movf	rd2RegCompleteHandler@ptr,w
  6746  02F2  3183  2340  3182   	fcall	i1_I2C1_SetBuffer
  6747  02F5                     i1l1936:	
  6748                           
  6749                           ;mcc_generated_files/examples/i2c1_master_example.c: 152:     I2C1_SetDataCompleteCallba
      +                          ck(((void*)0),((void*)0));
  6750  02F5  3000               	movlw	0
  6751  02F6  00F5               	movwf	I2C1_SetDataCompleteCallback@cb
  6752  02F7  00F6               	movwf	I2C1_SetDataCompleteCallback@cb+1
  6753  02F8  01F7               	clrf	I2C1_SetDataCompleteCallback@ptr
  6754  02F9  3183  236C  3182   	fcall	_I2C1_SetDataCompleteCallback
  6755  02FC                     i1l1938:	
  6756                           
  6757                           ;mcc_generated_files/examples/i2c1_master_example.c: 153:     return I2C1_RESTART_READ;
  6758  02FC  3002               	movlw	2
  6759  02FD                     i1l95:	
  6760  02FD  0008               	return
  6761  02FE                     __end_of_rd2RegCompleteHandler:	
  6762                           
  6763                           	psect	text54
  6764  02FE                     __ptext54:	
  6765 ;; *************** function _rd1RegCompleteHandler *****************
  6766 ;; Defined at:
  6767 ;;		line 142 in file "mcc_generated_files/examples/i2c1_master_example.c"
  6768 ;; Parameters:    Size  Location     Type
  6769 ;;  ptr             1    9[COMMON] PTR void 
  6770 ;;		 -> I2C1_ReadDataBlock@bufferBlock(3), I2C1_Write2ByteRegister@data(2), I2C1_Write1ByteRegister@data(1), I2C1_Read2B
      +yteRegister@returnValue(2), 
  6771 ;;		 -> NULL(0), I2C1_Read1ByteRegister@returnValue(1), 
  6772 ;; Auto vars:     Size  Location     Type
  6773 ;;		None
  6774 ;; Return value:  Size  Location     Type
  6775 ;;                  1    wreg      enum E358
  6776 ;; Registers used:
  6777 ;;		wreg, fsr1l, fsr1h, status,2, status,0, pclath, cstack
  6778 ;; Tracked objects:
  6779 ;;		On entry : 0/0
  6780 ;;		On exit  : 0/0
  6781 ;;		Unchanged: 0/0
  6782 ;; Data sizes:     COMMON   BANK0   BANK1   BANK2   BANK3   BANK4   BANK5   BANK6   BANK7   BANK8   BANK9  BANK10  BANK1
      +1  BANK12  BANK13  BANK14  BANK15  BANK16  BANK17  BANK18  BANK19  BANK20  BANK21  BANK22  BANK23  BANK24  BANK25
  6783 ;;      Params:         1       0       0       0       0       0       0       0       0       0       0       0       
      +0       0       0       0       0       0       0       0       0       0       0       0       0       0       0
  6784 ;;      Locals:         0       0       0       0       0       0       0       0       0       0       0       0       
      +0       0       0       0       0       0       0       0       0       0       0       0       0       0       0
  6785 ;;      Temps:          0       0       0       0       0       0       0       0       0       0       0       0       
      +0       0       0       0       0       0       0       0       0       0       0       0       0       0       0
  6786 ;;      Totals:         1       0       0       0       0       0       0       0       0       0       0       0       
      +0       0       0       0       0       0       0       0       0       0       0       0       0       0       0
  6787 ;;Total ram usage:        1 bytes
  6788 ;; Hardware stack levels used:    1
  6789 ;; Hardware stack levels required when called:    2
  6790 ;; This function calls:
  6791 ;;		_I2C1_SetDataCompleteCallback
  6792 ;;		i1_I2C1_SetBuffer
  6793 ;; This function is called by:
  6794 ;;		_I2C1_Read1ByteRegister
  6795 ;;		_I2C1_DO_TX
  6796 ;;		_I2C1_DO_RX
  6797 ;;		_I2C1_DO_TX_EMPTY
  6798 ;;		_I2C1_DO_ADDRESS_NACK
  6799 ;;		_I2C1_DO_RX_EMPTY
  6800 ;; This function uses a non-reentrant model
  6801 ;;
  6802                           
  6803                           
  6804                           ;psect for function _rd1RegCompleteHandler
  6805  02FE                     _rd1RegCompleteHandler:	
  6806  02FE                     i1l1926:	
  6807                           ;incstack = 0
  6808                           ; Regs used in _rd1RegCompleteHandler: [wreg+fsr1l+fsr1h+status,2+status,0+pclath+cstack
      +                          ]
  6809                           
  6810                           
  6811                           ;mcc_generated_files/examples/i2c1_master_example.c: 142: static i2c1_operations_t rd1Re
      +                          gCompleteHandler(void *ptr);mcc_generated_files/examples/i2c1_master_example.c: 143: {;m
      +                          cc_generated_files/examples/i2c1_master_example.c: 144:     I2C1_SetBuffer(ptr,1);
  6812  02FE  3001               	movlw	1
  6813  02FF  00F0               	movwf	i1I2C1_SetBuffer@bufferSize
  6814  0300  3000               	movlw	0
  6815  0301  00F1               	movwf	i1I2C1_SetBuffer@bufferSize+1
  6816  0302  0879               	movf	rd1RegCompleteHandler@ptr,w
  6817  0303  3183  2340  3182   	fcall	i1_I2C1_SetBuffer
  6818  0306                     i1l1928:	
  6819                           
  6820                           ;mcc_generated_files/examples/i2c1_master_example.c: 145:     I2C1_SetDataCompleteCallba
      +                          ck(((void*)0),((void*)0));
  6821  0306  3000               	movlw	0
  6822  0307  00F5               	movwf	I2C1_SetDataCompleteCallback@cb
  6823  0308  00F6               	movwf	I2C1_SetDataCompleteCallback@cb+1
  6824  0309  01F7               	clrf	I2C1_SetDataCompleteCallback@ptr
  6825  030A  3183  236C  3182   	fcall	_I2C1_SetDataCompleteCallback
  6826  030D                     i1l1930:	
  6827                           
  6828                           ;mcc_generated_files/examples/i2c1_master_example.c: 146:     return I2C1_RESTART_READ;
  6829  030D  3002               	movlw	2
  6830  030E                     i1l92:	
  6831  030E  0008               	return
  6832  030F                     __end_of_rd1RegCompleteHandler:	
  6833                           
  6834                           	psect	text55
  6835  030F                     __ptext55:	
  6836 ;; *************** function _wr2RegCompleteHandler *****************
  6837 ;; Defined at:
  6838 ;;		line 163 in file "mcc_generated_files/examples/i2c1_master_example.c"
  6839 ;; Parameters:    Size  Location     Type
  6840 ;;  ptr             1    9[COMMON] PTR void 
  6841 ;;		 -> I2C1_ReadDataBlock@bufferBlock(3), I2C1_Write2ByteRegister@data(2), I2C1_Write1ByteRegister@data(1), I2C1_Read2B
      +yteRegister@returnValue(2), 
  6842 ;;		 -> NULL(0), I2C1_Read1ByteRegister@returnValue(1), 
  6843 ;; Auto vars:     Size  Location     Type
  6844 ;;		None
  6845 ;; Return value:  Size  Location     Type
  6846 ;;                  1    wreg      enum E358
  6847 ;; Registers used:
  6848 ;;		wreg, fsr1l, fsr1h, status,2, status,0, pclath, cstack
  6849 ;; Tracked objects:
  6850 ;;		On entry : 0/0
  6851 ;;		On exit  : 0/0
  6852 ;;		Unchanged: 0/0
  6853 ;; Data sizes:     COMMON   BANK0   BANK1   BANK2   BANK3   BANK4   BANK5   BANK6   BANK7   BANK8   BANK9  BANK10  BANK1
      +1  BANK12  BANK13  BANK14  BANK15  BANK16  BANK17  BANK18  BANK19  BANK20  BANK21  BANK22  BANK23  BANK24  BANK25
  6854 ;;      Params:         1       0       0       0       0       0       0       0       0       0       0       0       
      +0       0       0       0       0       0       0       0       0       0       0       0       0       0       0
  6855 ;;      Locals:         0       0       0       0       0       0       0       0       0       0       0       0       
      +0       0       0       0       0       0       0       0       0       0       0       0       0       0       0
  6856 ;;      Temps:          0       0       0       0       0       0       0       0       0       0       0       0       
      +0       0       0       0       0       0       0       0       0       0       0       0       0       0       0
  6857 ;;      Totals:         1       0       0       0       0       0       0       0       0       0       0       0       
      +0       0       0       0       0       0       0       0       0       0       0       0       0       0       0
  6858 ;;Total ram usage:        1 bytes
  6859 ;; Hardware stack levels used:    1
  6860 ;; Hardware stack levels required when called:    2
  6861 ;; This function calls:
  6862 ;;		_I2C1_SetDataCompleteCallback
  6863 ;;		i1_I2C1_SetBuffer
  6864 ;; This function is called by:
  6865 ;;		_I2C1_Write2ByteRegister
  6866 ;;		_I2C1_DO_TX
  6867 ;;		_I2C1_DO_RX
  6868 ;;		_I2C1_DO_TX_EMPTY
  6869 ;;		_I2C1_DO_ADDRESS_NACK
  6870 ;;		_I2C1_DO_RX_EMPTY
  6871 ;; This function uses a non-reentrant model
  6872 ;;
  6873                           
  6874                           
  6875                           ;psect for function _wr2RegCompleteHandler
  6876  030F                     _wr2RegCompleteHandler:	
  6877  030F                     i1l1950:	
  6878                           ;incstack = 0
  6879                           ; Regs used in _wr2RegCompleteHandler: [wreg+fsr1l+fsr1h+status,2+status,0+pclath+cstack
      +                          ]
  6880                           
  6881                           
  6882                           ;mcc_generated_files/examples/i2c1_master_example.c: 163: static i2c1_operations_t wr2Re
      +                          gCompleteHandler(void *ptr);mcc_generated_files/examples/i2c1_master_example.c: 164: {;m
      +                          cc_generated_files/examples/i2c1_master_example.c: 165:     I2C1_SetBuffer(ptr,2);
  6883  030F  3002               	movlw	2
  6884  0310  00F0               	movwf	i1I2C1_SetBuffer@bufferSize
  6885  0311  3000               	movlw	0
  6886  0312  00F1               	movwf	i1I2C1_SetBuffer@bufferSize+1
  6887  0313  0879               	movf	wr2RegCompleteHandler@ptr,w
  6888  0314  3183  2340  3183   	fcall	i1_I2C1_SetBuffer
  6889  0317                     i1l1952:	
  6890                           
  6891                           ;mcc_generated_files/examples/i2c1_master_example.c: 166:     I2C1_SetDataCompleteCallba
      +                          ck(((void*)0),((void*)0));
  6892  0317  3000               	movlw	0
  6893  0318  00F5               	movwf	I2C1_SetDataCompleteCallback@cb
  6894  0319  00F6               	movwf	I2C1_SetDataCompleteCallback@cb+1
  6895  031A  01F7               	clrf	I2C1_SetDataCompleteCallback@ptr
  6896  031B  3183  236C  3183   	fcall	_I2C1_SetDataCompleteCallback
  6897  031E                     i1l1954:	
  6898                           
  6899                           ;mcc_generated_files/examples/i2c1_master_example.c: 167:     return I2C1_CONTINUE;
  6900  031E  3004               	movlw	4
  6901  031F                     i1l101:	
  6902  031F  0008               	return
  6903  0320                     __end_of_wr2RegCompleteHandler:	
  6904                           
  6905                           	psect	text56
  6906  0340                     __ptext56:	
  6907 ;; *************** function i1_I2C1_SetBuffer *****************
  6908 ;; Defined at:
  6909 ;;		line 264 in file "mcc_generated_files/i2c1_master.c"
  6910 ;; Parameters:    Size  Location     Type
  6911 ;;  buffer          1    wreg     PTR void 
  6912 ;;		 -> I2C_TxBuffer(1), I2C1_ReadDataBlock@reg(1), I2C1_ReadDataBlock@bufferBlock(3), I2C1_Write2ByteRegister@reg(1), 
  6913 ;;		 -> I2C1_Write2ByteRegister@data(2), I2C1_Write1ByteRegister@reg(1), I2C1_Write1ByteRegister@data(1), I2C1_Read2Byte
      +Register@reg(1), 
  6914 ;;		 -> I2C1_Read2ByteRegister@returnValue(2), NULL(0), I2C1_Read1ByteRegister@reg(1), I2C1_Read1ByteRegister@returnValu
      +e(1), 
  6915 ;;  bufferSize      2    0[COMMON] unsigned int 
  6916 ;; Auto vars:     Size  Location     Type
  6917 ;;  buffer          1    3[COMMON] PTR void 
  6918 ;;		 -> I2C_TxBuffer(1), I2C1_ReadDataBlock@reg(1), I2C1_ReadDataBlock@bufferBlock(3), I2C1_Write2ByteRegister@reg(1), 
  6919 ;;		 -> I2C1_Write2ByteRegister@data(2), I2C1_Write1ByteRegister@reg(1), I2C1_Write1ByteRegister@data(1), I2C1_Read2Byte
      +Register@reg(1), 
  6920 ;;		 -> I2C1_Read2ByteRegister@returnValue(2), NULL(0), I2C1_Read1ByteRegister@reg(1), I2C1_Read1ByteRegister@returnValu
      +e(1), 
  6921 ;; Return value:  Size  Location     Type
  6922 ;;                  1    wreg      void 
  6923 ;; Registers used:
  6924 ;;		wreg
  6925 ;; Tracked objects:
  6926 ;;		On entry : 0/0
  6927 ;;		On exit  : 0/0
  6928 ;;		Unchanged: 0/0
  6929 ;; Data sizes:     COMMON   BANK0   BANK1   BANK2   BANK3   BANK4   BANK5   BANK6   BANK7   BANK8   BANK9  BANK10  BANK1
      +1  BANK12  BANK13  BANK14  BANK15  BANK16  BANK17  BANK18  BANK19  BANK20  BANK21  BANK22  BANK23  BANK24  BANK25
  6930 ;;      Params:         2       0       0       0       0       0       0       0       0       0       0       0       
      +0       0       0       0       0       0       0       0       0       0       0       0       0       0       0
  6931 ;;      Locals:         1       0       0       0       0       0       0       0       0       0       0       0       
      +0       0       0       0       0       0       0       0       0       0       0       0       0       0       0
  6932 ;;      Temps:          1       0       0       0       0       0       0       0       0       0       0       0       
      +0       0       0       0       0       0       0       0       0       0       0       0       0       0       0
  6933 ;;      Totals:         4       0       0       0       0       0       0       0       0       0       0       0       
      +0       0       0       0       0       0       0       0       0       0       0       0       0       0       0
  6934 ;;Total ram usage:        4 bytes
  6935 ;; Hardware stack levels used:    1
  6936 ;; This function calls:
  6937 ;;		Nothing
  6938 ;; This function is called by:
  6939 ;;		_rd1RegCompleteHandler
  6940 ;;		_rd2RegCompleteHandler
  6941 ;;		_wr1RegCompleteHandler
  6942 ;;		_wr2RegCompleteHandler
  6943 ;;		_rdBlkRegCompleteHandler
  6944 ;; This function uses a non-reentrant model
  6945 ;;
  6946                           
  6947                           
  6948                           ;psect for function i1_I2C1_SetBuffer
  6949  0340                     i1_I2C1_SetBuffer:	
  6950                           
  6951                           ;incstack = 0
  6952                           ; Regs used in i1_I2C1_SetBuffer: [wreg]
  6953                           ;i1I2C1_SetBuffer@buffer stored from wreg
  6954  0340  00F3               	movwf	i1I2C1_SetBuffer@buffer
  6955  0341                     i1l1920:	
  6956                           
  6957                           ;mcc_generated_files/i2c1_master.c: 264: void I2C1_SetBuffer(void *buffer, size_t buffer
      +                          Size);mcc_generated_files/i2c1_master.c: 265: {;mcc_generated_files/i2c1_master.c: 266: 
      +                              if(I2C1_Status.bufferFree)
  6958  0341  0020               	movlb	0	; select bank0
  6959  0342  1DBC               	btfss	_I2C1_Status+28,3
  6960  0343  2B45               	goto	u37_21
  6961  0344  2B46               	goto	u37_20
  6962  0345                     u37_21:	
  6963  0345  2B4F               	goto	i1l238
  6964  0346                     u37_20:	
  6965  0346                     i1l1922:	
  6966                           
  6967                           ;mcc_generated_files/i2c1_master.c: 267:     {;mcc_generated_files/i2c1_master.c: 268:  
      +                                 I2C1_Status.data_ptr = buffer;
  6968  0346  0873               	movf	i1I2C1_SetBuffer@buffer,w
  6969  0347  00F2               	movwf	??i1_I2C1_SetBuffer
  6970  0348  0872               	movf	??i1_I2C1_SetBuffer,w
  6971  0349  00B7               	movwf	low ((_I2C1_Status| 0+23))
  6972                           
  6973                           ;mcc_generated_files/i2c1_master.c: 269:         I2C1_Status.data_length = bufferSize;
  6974  034A  0871               	movf	i1I2C1_SetBuffer@bufferSize+1,w
  6975  034B  00B9               	movwf	_I2C1_Status+25
  6976  034C  0870               	movf	i1I2C1_SetBuffer@bufferSize,w
  6977  034D  00B8               	movwf	_I2C1_Status+24
  6978  034E                     i1l1924:	
  6979                           
  6980                           ;mcc_generated_files/i2c1_master.c: 270:         I2C1_Status.bufferFree = 0;
  6981  034E  11BC               	bcf	_I2C1_Status+28,3
  6982  034F                     i1l238:	
  6983  034F  0008               	return
  6984  0350                     __end_ofi1_I2C1_SetBuffer:	
  6985                           
  6986                           	psect	text57
  6987  036C                     __ptext57:	
  6988 ;; *************** function _I2C1_SetDataCompleteCallback *****************
  6989 ;; Defined at:
  6990 ;;		line 274 in file "mcc_generated_files/i2c1_master.c"
  6991 ;; Parameters:    Size  Location     Type
  6992 ;;  cb              2    5[COMMON] PTR FTN(PTR void ,)enum 
  6993 ;;		 -> Absolute function(1), rdBlkRegCompleteHandler(1), wr2RegCompleteHandler(1), wr1RegCompleteHandler(1), 
  6994 ;;		 -> rd2RegCompleteHandler(1), rd1RegCompleteHandler(1), 
  6995 ;;  ptr             1    7[COMMON] PTR void 
  6996 ;;		 -> I2C1_ReadDataBlock@bufferBlock(3), I2C1_Write2ByteRegister@data(2), I2C1_Write1ByteRegister@data(1), I2C1_Read2B
      +yteRegister@returnValue(2), 
  6997 ;;		 -> NULL(0), I2C1_Read1ByteRegister@returnValue(1), 
  6998 ;; Auto vars:     Size  Location     Type
  6999 ;;		None
  7000 ;; Return value:  Size  Location     Type
  7001 ;;                  1    wreg      void 
  7002 ;; Registers used:
  7003 ;;		wreg, fsr1l, fsr1h, status,2, status,0, pclath, cstack
  7004 ;; Tracked objects:
  7005 ;;		On entry : 0/0
  7006 ;;		On exit  : 0/0
  7007 ;;		Unchanged: 0/0
  7008 ;; Data sizes:     COMMON   BANK0   BANK1   BANK2   BANK3   BANK4   BANK5   BANK6   BANK7   BANK8   BANK9  BANK10  BANK1
      +1  BANK12  BANK13  BANK14  BANK15  BANK16  BANK17  BANK18  BANK19  BANK20  BANK21  BANK22  BANK23  BANK24  BANK25
  7009 ;;      Params:         3       0       0       0       0       0       0       0       0       0       0       0       
      +0       0       0       0       0       0       0       0       0       0       0       0       0       0       0
  7010 ;;      Locals:         0       0       0       0       0       0       0       0       0       0       0       0       
      +0       0       0       0       0       0       0       0       0       0       0       0       0       0       0
  7011 ;;      Temps:          1       0       0       0       0       0       0       0       0       0       0       0       
      +0       0       0       0       0       0       0       0       0       0       0       0       0       0       0
  7012 ;;      Totals:         4       0       0       0       0       0       0       0       0       0       0       0       
      +0       0       0       0       0       0       0       0       0       0       0       0       0       0       0
  7013 ;;Total ram usage:        4 bytes
  7014 ;; Hardware stack levels used:    1
  7015 ;; Hardware stack levels required when called:    1
  7016 ;; This function calls:
  7017 ;;		i1_I2C1_SetCallback
  7018 ;; This function is called by:
  7019 ;;		_rd1RegCompleteHandler
  7020 ;;		_rd2RegCompleteHandler
  7021 ;;		_wr1RegCompleteHandler
  7022 ;;		_wr2RegCompleteHandler
  7023 ;;		_rdBlkRegCompleteHandler
  7024 ;;		_I2C1_Read1ByteRegister
  7025 ;;		_I2C1_Read2ByteRegister
  7026 ;;		_I2C1_Write1ByteRegister
  7027 ;;		_I2C1_Write2ByteRegister
  7028 ;;		_I2C1_ReadDataBlock
  7029 ;; This function uses a non-reentrant model
  7030 ;;
  7031                           
  7032                           
  7033                           ;psect for function _I2C1_SetDataCompleteCallback
  7034  036C                     _I2C1_SetDataCompleteCallback:	
  7035  036C                     i1l1912:	
  7036                           ;incstack = 0
  7037                           ; Regs used in _I2C1_SetDataCompleteCallback: [wreg+fsr1l+fsr1h+status,2+status,0+pclath
      +                          +cstack]
  7038                           
  7039                           
  7040                           ;mcc_generated_files/i2c1_master.c: 274: void I2C1_SetDataCompleteCallback(i2c1_callback
      +                          _t cb, void *ptr);mcc_generated_files/i2c1_master.c: 275: {;mcc_generated_files/i2c1_mas
      +                          ter.c: 276:     I2C1_SetCallback(I2C1_DATA_COMPLETE, cb, ptr);
  7041  036C  0876               	movf	I2C1_SetDataCompleteCallback@cb+1,w
  7042  036D  00F1               	movwf	i1I2C1_SetCallback@cb+1
  7043  036E  0875               	movf	I2C1_SetDataCompleteCallback@cb,w
  7044  036F  00F0               	movwf	i1I2C1_SetCallback@cb
  7045  0370  0877               	movf	I2C1_SetDataCompleteCallback@ptr,w
  7046  0371  00F8               	movwf	??_I2C1_SetDataCompleteCallback
  7047  0372  0878               	movf	??_I2C1_SetDataCompleteCallback,w
  7048  0373  00F2               	movwf	i1I2C1_SetCallback@ptr
  7049  0374  3000               	movlw	0
  7050  0375  3182  2246  3183   	fcall	i1_I2C1_SetCallback
  7051  0378                     i1l241:	
  7052  0378  0008               	return
  7053  0379                     __end_of_I2C1_SetDataCompleteCallback:	
  7054                           
  7055                           	psect	text58
  7056  0246                     __ptext58:	
  7057 ;; *************** function i1_I2C1_SetCallback *****************
  7058 ;; Defined at:
  7059 ;;		line 304 in file "mcc_generated_files/i2c1_master.c"
  7060 ;; Parameters:    Size  Location     Type
  7061 ;;  idx             1    wreg     enum E7174
  7062 ;;  cb              2    0[COMMON] PTR FTN(PTR void ,)enum 
  7063 ;;		 -> Absolute function(1), rdBlkRegCompleteHandler(1), wr2RegCompleteHandler(1), wr1RegCompleteHandler(1), 
  7064 ;;		 -> rd2RegCompleteHandler(1), rd1RegCompleteHandler(1), 
  7065 ;;  ptr             1    2[COMMON] PTR void 
  7066 ;;		 -> I2C1_ReadDataBlock@bufferBlock(3), I2C1_Write2ByteRegister@data(2), I2C1_Write1ByteRegister@data(1), I2C1_Read2B
      +yteRegister@returnValue(2), 
  7067 ;;		 -> NULL(0), I2C1_Read1ByteRegister@returnValue(1), 
  7068 ;; Auto vars:     Size  Location     Type
  7069 ;;  idx             1    4[COMMON] enum E7174
  7070 ;; Return value:  Size  Location     Type
  7071 ;;                  1    wreg      void 
  7072 ;; Registers used:
  7073 ;;		wreg, fsr1l, fsr1h, status,2, status,0
  7074 ;; Tracked objects:
  7075 ;;		On entry : 0/0
  7076 ;;		On exit  : 0/0
  7077 ;;		Unchanged: 0/0
  7078 ;; Data sizes:     COMMON   BANK0   BANK1   BANK2   BANK3   BANK4   BANK5   BANK6   BANK7   BANK8   BANK9  BANK10  BANK1
      +1  BANK12  BANK13  BANK14  BANK15  BANK16  BANK17  BANK18  BANK19  BANK20  BANK21  BANK22  BANK23  BANK24  BANK25
  7079 ;;      Params:         3       0       0       0       0       0       0       0       0       0       0       0       
      +0       0       0       0       0       0       0       0       0       0       0       0       0       0       0
  7080 ;;      Locals:         1       0       0       0       0       0       0       0       0       0       0       0       
      +0       0       0       0       0       0       0       0       0       0       0       0       0       0       0
  7081 ;;      Temps:          1       0       0       0       0       0       0       0       0       0       0       0       
      +0       0       0       0       0       0       0       0       0       0       0       0       0       0       0
  7082 ;;      Totals:         5       0       0       0       0       0       0       0       0       0       0       0       
      +0       0       0       0       0       0       0       0       0       0       0       0       0       0       0
  7083 ;;Total ram usage:        5 bytes
  7084 ;; Hardware stack levels used:    1
  7085 ;; This function calls:
  7086 ;;		Nothing
  7087 ;; This function is called by:
  7088 ;;		_I2C1_SetDataCompleteCallback
  7089 ;; This function uses a non-reentrant model
  7090 ;;
  7091                           
  7092                           
  7093                           ;psect for function i1_I2C1_SetCallback
  7094  0246                     i1_I2C1_SetCallback:	
  7095                           
  7096                           ;incstack = 0
  7097                           ; Regs used in i1_I2C1_SetCallback: [wreg+fsr1l+fsr1h+status,2+status,0]
  7098                           ;i1I2C1_SetCallback@idx stored from wreg
  7099  0246  00F4               	movwf	i1I2C1_SetCallback@idx
  7100  0247                     i1l1906:	
  7101                           
  7102                           ;mcc_generated_files/i2c1_master.c: 304: static void I2C1_SetCallback(i2c1_callbackIndex
      +                          _t idx, i2c1_callback_t cb, void *ptr);mcc_generated_files/i2c1_master.c: 305: {;mcc_gen
      +                          erated_files/i2c1_master.c: 306:     if(cb)
  7103  0247  0870               	movf	i1I2C1_SetCallback@cb,w
  7104  0248  0471               	iorwf	i1I2C1_SetCallback@cb+1,w
  7105  0249  1903               	btfsc	3,2
  7106  024A  2A4C               	goto	u36_21
  7107  024B  2A4D               	goto	u36_20
  7108  024C                     u36_21:	
  7109  024C  2A5E               	goto	i1l1910
  7110  024D                     u36_20:	
  7111  024D                     i1l1908:	
  7112                           
  7113                           ;mcc_generated_files/i2c1_master.c: 307:     {;mcc_generated_files/i2c1_master.c: 308:  
      +                                 I2C1_Status.callbackTable[idx] = cb;
  7114  024D  3574               	lslf	i1I2C1_SetCallback@idx,w
  7115  024E  3E20               	addlw	(low (_I2C1_Status| 0))& (0+255)
  7116  024F  0086               	movwf	6
  7117  0250  0187               	clrf	7
  7118  0251  0870               	movf	i1I2C1_SetCallback@cb,w
  7119  0252  3FC0               	movwi [0]fsr1
  7120  0253  0871               	movf	i1I2C1_SetCallback@cb+1,w
  7121  0254  3FC1               	movwi [1]fsr1
  7122                           
  7123                           ;mcc_generated_files/i2c1_master.c: 309:         I2C1_Status.callbackPayload[idx] = ptr;
  7124  0255  0872               	movf	i1I2C1_SetCallback@ptr,w
  7125  0256  00F3               	movwf	??i1_I2C1_SetCallback
  7126  0257  0874               	movf	i1I2C1_SetCallback@idx,w
  7127  0258  3E2C               	addlw	(low ((_I2C1_Status| 0+12)))& (0+255)
  7128  0259  0086               	movwf	6
  7129  025A  0187               	clrf	7
  7130  025B  0873               	movf	??i1_I2C1_SetCallback,w
  7131  025C  0081               	movwf	1
  7132                           
  7133                           ;mcc_generated_files/i2c1_master.c: 310:     }
  7134  025D  2A6B               	goto	i1l261
  7135  025E                     i1l1910:	
  7136                           
  7137                           ;mcc_generated_files/i2c1_master.c: 312:     {;mcc_generated_files/i2c1_master.c: 313:  
      +                                 I2C1_Status.callbackTable[idx] = I2C1_CallbackReturnStop;
  7138  025E  3574               	lslf	i1I2C1_SetCallback@idx,w
  7139  025F  3E20               	addlw	(low (_I2C1_Status| 0))& (0+255)
  7140  0260  0086               	movwf	6
  7141  0261  0187               	clrf	7
  7142  0262  3028               	movlw	low _I2C1_CallbackReturnStop
  7143  0263  3FC0               	movwi [0]fsr1
  7144  0264  3004               	movlw	high _I2C1_CallbackReturnStop
  7145  0265  3FC1               	movwi [1]fsr1
  7146                           
  7147                           ;mcc_generated_files/i2c1_master.c: 314:         I2C1_Status.callbackPayload[idx] = ((vo
      +                          id*)0);
  7148  0266  0874               	movf	i1I2C1_SetCallback@idx,w
  7149  0267  3E2C               	addlw	(low ((_I2C1_Status| 0+12)))& (0+255)
  7150  0268  0086               	movwf	6
  7151  0269  0187               	clrf	7
  7152  026A  0181               	clrf	1
  7153  026B                     i1l261:	
  7154  026B  0008               	return
  7155  026C                     __end_ofi1_I2C1_SetCallback:	
  7156                           
  7157                           	psect	text59
  7158  0420                     __ptext59:	
  7159 ;; *************** function _I2C1_MasterStop *****************
  7160 ;; Defined at:
  7161 ;;		line 594 in file "mcc_generated_files/i2c1_master.c"
  7162 ;; Parameters:    Size  Location     Type
  7163 ;;		None
  7164 ;; Auto vars:     Size  Location     Type
  7165 ;;		None
  7166 ;; Return value:  Size  Location     Type
  7167 ;;                  1    wreg      void 
  7168 ;; Registers used:
  7169 ;;		None
  7170 ;; Tracked objects:
  7171 ;;		On entry : 0/0
  7172 ;;		On exit  : 0/0
  7173 ;;		Unchanged: 0/0
  7174 ;; Data sizes:     COMMON   BANK0   BANK1   BANK2   BANK3   BANK4   BANK5   BANK6   BANK7   BANK8   BANK9  BANK10  BANK1
      +1  BANK12  BANK13  BANK14  BANK15  BANK16  BANK17  BANK18  BANK19  BANK20  BANK21  BANK22  BANK23  BANK24  BANK25
  7175 ;;      Params:         0       0       0       0       0       0       0       0       0       0       0       0       
      +0       0       0       0       0       0       0       0       0       0       0       0       0       0       0
  7176 ;;      Locals:         0       0       0       0       0       0       0       0       0       0       0       0       
      +0       0       0       0       0       0       0       0       0       0       0       0       0       0       0
  7177 ;;      Temps:          0       0       0       0       0       0       0       0       0       0       0       0       
      +0       0       0       0       0       0       0       0       0       0       0       0       0       0       0
  7178 ;;      Totals:         0       0       0       0       0       0       0       0       0       0       0       0       
      +0       0       0       0       0       0       0       0       0       0       0       0       0       0       0
  7179 ;;Total ram usage:        0 bytes
  7180 ;; Hardware stack levels used:    1
  7181 ;; This function calls:
  7182 ;;		Nothing
  7183 ;; This function is called by:
  7184 ;;		_I2C1_DO_SEND_STOP
  7185 ;; This function uses a non-reentrant model
  7186 ;;
  7187                           
  7188                           
  7189                           ;psect for function _I2C1_MasterStop
  7190  0420                     _I2C1_MasterStop:	
  7191  0420                     i1l1916:	
  7192                           ;incstack = 0
  7193                           ; Regs used in _I2C1_MasterStop: []
  7194                           
  7195                           
  7196                           ;mcc_generated_files/i2c1_master.c: 596:     SSP1CON2bits.PEN = 1;
  7197  0420  0024               	movlb	4	; select bank4
  7198  0421  1516               	bsf	22,2	;volatile
  7199  0422                     i1l404:	
  7200  0422  0008               	return
  7201  0423                     __end_of_I2C1_MasterStop:	
  7202                           
  7203                           	psect	text60
  7204  0423                     __ptext60:	
  7205 ;; *************** function _I2C1_MasterEnableRestart *****************
  7206 ;; Defined at:
  7207 ;;		line 574 in file "mcc_generated_files/i2c1_master.c"
  7208 ;; Parameters:    Size  Location     Type
  7209 ;;		None
  7210 ;; Auto vars:     Size  Location     Type
  7211 ;;		None
  7212 ;; Return value:  Size  Location     Type
  7213 ;;                  1    wreg      void 
  7214 ;; Registers used:
  7215 ;;		None
  7216 ;; Tracked objects:
  7217 ;;		On entry : 0/0
  7218 ;;		On exit  : 0/0
  7219 ;;		Unchanged: 0/0
  7220 ;; Data sizes:     COMMON   BANK0   BANK1   BANK2   BANK3   BANK4   BANK5   BANK6   BANK7   BANK8   BANK9  BANK10  BANK1
      +1  BANK12  BANK13  BANK14  BANK15  BANK16  BANK17  BANK18  BANK19  BANK20  BANK21  BANK22  BANK23  BANK24  BANK25
  7221 ;;      Params:         0       0       0       0       0       0       0       0       0       0       0       0       
      +0       0       0       0       0       0       0       0       0       0       0       0       0       0       0
  7222 ;;      Locals:         0       0       0       0       0       0       0       0       0       0       0       0       
      +0       0       0       0       0       0       0       0       0       0       0       0       0       0       0
  7223 ;;      Temps:          0       0       0       0       0       0       0       0       0       0       0       0       
      +0       0       0       0       0       0       0       0       0       0       0       0       0       0       0
  7224 ;;      Totals:         0       0       0       0       0       0       0       0       0       0       0       0       
      +0       0       0       0       0       0       0       0       0       0       0       0       0       0       0
  7225 ;;Total ram usage:        0 bytes
  7226 ;; Hardware stack levels used:    1
  7227 ;; This function calls:
  7228 ;;		Nothing
  7229 ;; This function is called by:
  7230 ;;		_I2C1_DO_SEND_RESTART_READ
  7231 ;;		_I2C1_DO_SEND_RESTART_WRITE
  7232 ;;		_I2C1_DO_SEND_RESTART
  7233 ;;		_I2C1_DO_RX_EMPTY
  7234 ;; This function uses a non-reentrant model
  7235 ;;
  7236                           
  7237                           
  7238                           ;psect for function _I2C1_MasterEnableRestart
  7239  0423                     _I2C1_MasterEnableRestart:	
  7240  0423                     i1l1914:	
  7241                           ;incstack = 0
  7242                           ; Regs used in _I2C1_MasterEnableRestart: []
  7243                           
  7244                           
  7245                           ;mcc_generated_files/i2c1_master.c: 576:     SSP1CON2bits.RSEN = 1;
  7246  0423  0024               	movlb	4	; select bank4
  7247  0424  1496               	bsf	22,1	;volatile
  7248  0425                     i1l392:	
  7249  0425  0008               	return
  7250  0426                     __end_of_I2C1_MasterEnableRestart:	
  7251  007E                     btemp	set	126	;btemp
  7252  007E                     int$flags	set	126
  7253  007E                     wtemp0	set	126


Data Sizes:
    Strings     0
    Constant    32
    Data        0
    BSS         32
    Persistent  32
    Stack       0

Auto Spaces:
    Space          Size  Autos    Used
    COMMON           14     13      13
    BANK0            80     18      50
    BANK1            80      0       0
    BANK2            80      0       0
    BANK3            80      0       0
    BANK4            80      0       0
    BANK5            80      0       0
    BANK6            80      0       0
    BANK7            80      0       0
    BANK8            80      0       0
    BANK9            80      0       0
    BANK10           80      0       0
    BANK11           80      0       0
    BANK12           80      0       0
    BANK13           80      0       0
    BANK14           80      0       0
    BANK15           80      0       0
    BANK16           80      0       0
    BANK17           80      0       0
    BANK18           80      0       0
    BANK19           80      0       0
    BANK20           80      0       0
    BANK21           80      0       0
    BANK22           80      0       0
    BANK23           80      0       0
    BANK24           80      0       0
    BANK25           32      0       0

Pointer List with Targets:

    I2C1_Read1ByteRegister@returnValue.data	PTR unsigned char  size(1) Largest target is 0

    I2C1_Read2ByteRegister@returnValue.data	PTR unsigned char  size(1) Largest target is 0

    I2C1_Write1ByteRegister@data.data	PTR unsigned char  size(1) Largest target is 0

    I2C1_Write2ByteRegister@data.data	PTR unsigned char  size(1) Largest target is 0

    I2C1_DO_TX$1521$0	PTR void  size(1) Largest target is 4
		 -> I2C1_ReadDataBlock@bufferBlock(COMMON[3]), I2C1_Write2ByteRegister@data(COMMON[2]), I2C1_Write1ByteRegister@data(COMMON[1]), I2C1_Read2ByteRegister@returnValue(COMMON[2]), 
		 -> NULL(NULL[0]), I2C1_Read1ByteRegister@returnValue(COMMON[1]), 

    I2C1_DO_TX$1526	PTR void  size(1) Largest target is 4
		 -> I2C1_ReadDataBlock@bufferBlock(COMMON[3]), I2C1_Write2ByteRegister@data(COMMON[2]), I2C1_Write1ByteRegister@data(COMMON[1]), I2C1_Read2ByteRegister@returnValue(COMMON[2]), 
		 -> NULL(NULL[0]), I2C1_Read1ByteRegister@returnValue(COMMON[1]), 

    I2C1_DO_TX$1521	PTR FTN(PTR void ,)enum E358 size(2) Largest target is 1
		 -> I2C1_CallbackReturnReset(), I2C1_CallbackReturnStop(), Absolute function(), rdBlkRegCompleteHandler(), 
		 -> wr2RegCompleteHandler(), wr1RegCompleteHandler(), rd2RegCompleteHandler(), rd1RegCompleteHandler(), 

    I2C1_MasterFsm$1520	const PTR FTN()enum E7156 size(2) Largest target is 1
		 -> I2C1_DO_ADDRESS_NACK(), I2C1_DO_RESET(), I2C1_DO_RX_NACK_RESTART(), I2C1_DO_RX_NACK_STOP(), 
		 -> I2C1_DO_RX_ACK(), I2C1_DO_SEND_STOP(), I2C1_DO_SEND_RESTART(), I2C1_DO_SEND_RESTART_WRITE(), 
		 -> I2C1_DO_SEND_RESTART_READ(), I2C1_DO_TX_EMPTY(), I2C1_DO_RCEN(), I2C1_DO_RX(), 
		 -> I2C1_DO_TX(), I2C1_DO_SEND_ADR_WRITE(), I2C1_DO_SEND_ADR_READ(), I2C1_DO_IDLE(), 

    I2C1_CallbackReturnStop@funPtr	PTR void  size(1) Largest target is 4
		 -> I2C1_ReadDataBlock@bufferBlock(COMMON[3]), I2C1_Write2ByteRegister@data(COMMON[2]), I2C1_Write1ByteRegister@data(COMMON[1]), I2C1_Read2ByteRegister@returnValue(COMMON[2]), 
		 -> NULL(NULL[0]), I2C1_Read1ByteRegister@returnValue(COMMON[1]), 

    I2C1_CallbackReturnReset@funPtr	PTR void  size(1) Largest target is 4
		 -> I2C1_ReadDataBlock@bufferBlock(COMMON[3]), I2C1_Write2ByteRegister@data(COMMON[2]), I2C1_Write1ByteRegister@data(COMMON[1]), I2C1_Read2ByteRegister@returnValue(COMMON[2]), 
		 -> NULL(NULL[0]), I2C1_Read1ByteRegister@returnValue(COMMON[1]), 

    cb$0	PTR void  size(1) Largest target is 4
		 -> I2C1_ReadDataBlock@bufferBlock(COMMON[3]), I2C1_Write2ByteRegister@data(COMMON[2]), I2C1_Write1ByteRegister@data(COMMON[1]), I2C1_Read2ByteRegister@returnValue(COMMON[2]), 
		 -> NULL(NULL[0]), I2C1_Read1ByteRegister@returnValue(COMMON[1]), 

    Absolute function$0	PTR void  size(1) Largest target is 4
		 -> I2C1_ReadDataBlock@bufferBlock(COMMON[3]), I2C1_Write2ByteRegister@data(COMMON[2]), I2C1_Write1ByteRegister@data(COMMON[1]), I2C1_Read2ByteRegister@returnValue(COMMON[2]), 
		 -> NULL(NULL[0]), I2C1_Read1ByteRegister@returnValue(COMMON[1]), 

    cb$0	PTR void  size(1) Largest target is 4
		 -> I2C1_ReadDataBlock@bufferBlock(COMMON[3]), I2C1_Write2ByteRegister@data(COMMON[2]), I2C1_Write1ByteRegister@data(COMMON[1]), I2C1_Read2ByteRegister@returnValue(COMMON[2]), 
		 -> NULL(NULL[0]), I2C1_Read1ByteRegister@returnValue(COMMON[1]), 

    S249$0$0	PTR void  size(1) Largest target is 4
		 -> I2C1_ReadDataBlock@bufferBlock(COMMON[3]), I2C1_Write2ByteRegister@data(COMMON[2]), I2C1_Write1ByteRegister@data(COMMON[1]), I2C1_Read2ByteRegister@returnValue(COMMON[2]), 
		 -> NULL(NULL[0]), I2C1_Read1ByteRegister@returnValue(COMMON[1]), 

    I2C1_SetCallback@ptr	PTR void  size(1) Largest target is 4
		 -> I2C1_ReadDataBlock@bufferBlock(COMMON[3]), I2C1_Write2ByteRegister@data(COMMON[2]), I2C1_Write1ByteRegister@data(COMMON[1]), I2C1_Read2ByteRegister@returnValue(COMMON[2]), 
		 -> NULL(NULL[0]), I2C1_Read1ByteRegister@returnValue(COMMON[1]), 

    I2C1_SetCallback@cb	PTR FTN(PTR void ,)enum E358 size(2) Largest target is 1
		 -> Absolute function(), rdBlkRegCompleteHandler(), wr2RegCompleteHandler(), wr1RegCompleteHandler(), 
		 -> rd2RegCompleteHandler(), rd1RegCompleteHandler(), 

    I2C1_SetInterruptHandler@InterruptHandler	PTR FTN()void  size(2) Largest target is 1
		 -> I2C1_MasterIsr(), 

    MSSP1_InterruptHandler	PTR FTN()void  size(2) Largest target is 1
		 -> I2C1_MasterIsr(), Absolute function(), 

    I2C1_SetAddressNackCallback@ptr	PTR void  size(1) Largest target is 0
		 -> NULL(NULL[0]), 

    I2C1_SetAddressNackCallback@cb	PTR FTN(PTR void ,)enum E358 size(2) Largest target is 1
		 -> Absolute function(), 

    I2C1_SetDataCompleteCallback@ptr	PTR void  size(1) Largest target is 4
		 -> I2C1_ReadDataBlock@bufferBlock(COMMON[3]), I2C1_Write2ByteRegister@data(COMMON[2]), I2C1_Write1ByteRegister@data(COMMON[1]), I2C1_Read2ByteRegister@returnValue(COMMON[2]), 
		 -> NULL(NULL[0]), I2C1_Read1ByteRegister@returnValue(COMMON[1]), 

    I2C1_SetDataCompleteCallback@cb	PTR FTN(PTR void ,)enum E358 size(2) Largest target is 1
		 -> Absolute function(), rdBlkRegCompleteHandler(), wr2RegCompleteHandler(), wr1RegCompleteHandler(), 
		 -> rd2RegCompleteHandler(), rd1RegCompleteHandler(), 

    I2C1_SetBuffer@buffer	PTR void  size(1) Largest target is 4
		 -> I2C_TxBuffer(BANK0[1]), I2C1_ReadDataBlock@reg(COMMON[1]), I2C1_ReadDataBlock@bufferBlock(COMMON[3]), I2C1_Write2ByteRegister@reg(COMMON[1]), 
		 -> I2C1_Write2ByteRegister@data(COMMON[2]), I2C1_Write1ByteRegister@reg(COMMON[1]), I2C1_Write1ByteRegister@data(COMMON[1]), I2C1_Read2ByteRegister@reg(COMMON[1]), 
		 -> I2C1_Read2ByteRegister@returnValue(COMMON[2]), NULL(NULL[0]), I2C1_Read1ByteRegister@reg(COMMON[1]), I2C1_Read1ByteRegister@returnValue(COMMON[1]), 

    S249$data_ptr	PTR unsigned char  size(1) Largest target is 4
		 -> I2C_TxBuffer(BANK0[1]), I2C1_ReadDataBlock@reg(COMMON[1]), I2C1_ReadDataBlock@bufferBlock(COMMON[3]), I2C1_Write2ByteRegister@reg(COMMON[1]), 
		 -> I2C1_Write2ByteRegister@data(COMMON[2]), I2C1_Write1ByteRegister@reg(COMMON[1]), I2C1_Write1ByteRegister@data(COMMON[1]), I2C1_Read2ByteRegister@reg(COMMON[1]), 
		 -> I2C1_Read2ByteRegister@returnValue(COMMON[2]), NULL(NULL[0]), I2C1_Read1ByteRegister@reg(COMMON[1]), I2C1_Read1ByteRegister@returnValue(COMMON[1]), 

    I2C1_Status.data_ptr	PTR unsigned char  size(1) Largest target is 4
		 -> I2C_TxBuffer(BANK0[1]), I2C1_ReadDataBlock@reg(COMMON[1]), I2C1_ReadDataBlock@bufferBlock(COMMON[3]), I2C1_Write2ByteRegister@reg(COMMON[1]), 
		 -> I2C1_Write2ByteRegister@data(COMMON[2]), I2C1_Write1ByteRegister@reg(COMMON[1]), I2C1_Write1ByteRegister@data(COMMON[1]), I2C1_Read2ByteRegister@reg(COMMON[1]), 
		 -> I2C1_Read2ByteRegister@returnValue(COMMON[2]), NULL(NULL[0]), I2C1_Read1ByteRegister@reg(COMMON[1]), I2C1_Read1ByteRegister@returnValue(COMMON[1]), 

    S249$callbackPayload	PTR void [6] size(1) Largest target is 4
		 -> I2C1_ReadDataBlock@bufferBlock(COMMON[3]), I2C1_Write2ByteRegister@data(COMMON[2]), I2C1_Write1ByteRegister@data(COMMON[1]), I2C1_Read2ByteRegister@returnValue(COMMON[2]), 
		 -> NULL(NULL[0]), I2C1_Read1ByteRegister@returnValue(COMMON[1]), 

    I2C1_Status.callbackPayload	PTR void [6] size(1) Largest target is 4
		 -> I2C1_ReadDataBlock@bufferBlock(COMMON[3]), I2C1_Write2ByteRegister@data(COMMON[2]), I2C1_Write1ByteRegister@data(COMMON[1]), I2C1_Read2ByteRegister@returnValue(COMMON[2]), 
		 -> NULL(NULL[0]), I2C1_Read1ByteRegister@returnValue(COMMON[1]), 

    S249$callbackTable	PTR FTN(PTR void ,)enum E358[6] size(2) Largest target is 1
		 -> I2C1_CallbackReturnReset(), I2C1_CallbackReturnStop(), Absolute function(), rdBlkRegCompleteHandler(), 
		 -> wr2RegCompleteHandler(), wr1RegCompleteHandler(), rd2RegCompleteHandler(), rd1RegCompleteHandler(), 

    I2C1_Status.callbackTable	PTR FTN(PTR void ,)enum E358[6] size(2) Largest target is 1
		 -> I2C1_CallbackReturnReset(), I2C1_CallbackReturnStop(), Absolute function(), rdBlkRegCompleteHandler(), 
		 -> wr2RegCompleteHandler(), wr1RegCompleteHandler(), rd2RegCompleteHandler(), rd1RegCompleteHandler(), 

    fsmStateTable	const PTR FTN()enum E7156[16] size(2) Largest target is 1
		 -> I2C1_DO_ADDRESS_NACK(), I2C1_DO_RESET(), I2C1_DO_RX_NACK_RESTART(), I2C1_DO_RX_NACK_STOP(), 
		 -> I2C1_DO_RX_ACK(), I2C1_DO_SEND_STOP(), I2C1_DO_SEND_RESTART(), I2C1_DO_SEND_RESTART_WRITE(), 
		 -> I2C1_DO_SEND_RESTART_READ(), I2C1_DO_TX_EMPTY(), I2C1_DO_RCEN(), I2C1_DO_RX(), 
		 -> I2C1_DO_TX(), I2C1_DO_SEND_ADR_WRITE(), I2C1_DO_SEND_ADR_READ(), I2C1_DO_IDLE(), 

    rdBlkRegCompleteHandler@ptr.data	PTR unsigned char  size(1) Largest target is 0

    rdBlkRegCompleteHandler@ptr	PTR void  size(1) Largest target is 4
		 -> I2C1_ReadDataBlock@bufferBlock(COMMON[3]), I2C1_Write2ByteRegister@data(COMMON[2]), I2C1_Write1ByteRegister@data(COMMON[1]), I2C1_Read2ByteRegister@returnValue(COMMON[2]), 
		 -> NULL(NULL[0]), I2C1_Read1ByteRegister@returnValue(COMMON[1]), 

    wr2RegCompleteHandler@ptr	PTR void  size(1) Largest target is 4
		 -> I2C1_ReadDataBlock@bufferBlock(COMMON[3]), I2C1_Write2ByteRegister@data(COMMON[2]), I2C1_Write1ByteRegister@data(COMMON[1]), I2C1_Read2ByteRegister@returnValue(COMMON[2]), 
		 -> NULL(NULL[0]), I2C1_Read1ByteRegister@returnValue(COMMON[1]), 

    wr1RegCompleteHandler@ptr	PTR void  size(1) Largest target is 4
		 -> I2C1_ReadDataBlock@bufferBlock(COMMON[3]), I2C1_Write2ByteRegister@data(COMMON[2]), I2C1_Write1ByteRegister@data(COMMON[1]), I2C1_Read2ByteRegister@returnValue(COMMON[2]), 
		 -> NULL(NULL[0]), I2C1_Read1ByteRegister@returnValue(COMMON[1]), 

    rd2RegCompleteHandler@ptr	PTR void  size(1) Largest target is 4
		 -> I2C1_ReadDataBlock@bufferBlock(COMMON[3]), I2C1_Write2ByteRegister@data(COMMON[2]), I2C1_Write1ByteRegister@data(COMMON[1]), I2C1_Read2ByteRegister@returnValue(COMMON[2]), 
		 -> NULL(NULL[0]), I2C1_Read1ByteRegister@returnValue(COMMON[1]), 

    rd1RegCompleteHandler@ptr	PTR void  size(1) Largest target is 4
		 -> I2C1_ReadDataBlock@bufferBlock(COMMON[3]), I2C1_Write2ByteRegister@data(COMMON[2]), I2C1_Write1ByteRegister@data(COMMON[1]), I2C1_Read2ByteRegister@returnValue(COMMON[2]), 
		 -> NULL(NULL[0]), I2C1_Read1ByteRegister@returnValue(COMMON[1]), 

    S95$data	PTR unsigned char  size(1) Largest target is 0

    bufferBlock.data	PTR unsigned char  size(1) Largest target is 0

    I2C1_WriteNBytes@data	PTR unsigned char  size(1) Largest target is 1
		 -> I2C_TxBuffer(BANK0[1]), 


Critical Paths under _main in COMMON

    None.

Critical Paths under _INTERRUPT_InterruptManager in COMMON

    _I2C1_MasterFsm->_I2C1_DO_ADDRESS_NACK
    _I2C1_MasterFsm->_I2C1_DO_RX
    _I2C1_MasterFsm->_I2C1_DO_TX
    _I2C1_MasterFsm->_I2C1_DO_TX_EMPTY
    _I2C1_DO_TX_EMPTY->_I2C1_CallbackReturnReset
    _I2C1_DO_TX_EMPTY->_I2C1_CallbackReturnStop
    _I2C1_DO_TX_EMPTY->_rd1RegCompleteHandler
    _I2C1_DO_TX_EMPTY->_rd2RegCompleteHandler
    _I2C1_DO_TX_EMPTY->_rdBlkRegCompleteHandler
    _I2C1_DO_TX_EMPTY->_wr1RegCompleteHandler
    _I2C1_DO_TX_EMPTY->_wr2RegCompleteHandler
    _I2C1_DO_TX->_I2C1_CallbackReturnReset
    _I2C1_DO_TX->_I2C1_CallbackReturnStop
    _I2C1_DO_TX->_rd1RegCompleteHandler
    _I2C1_DO_TX->_rd2RegCompleteHandler
    _I2C1_DO_TX->_rdBlkRegCompleteHandler
    _I2C1_DO_TX->_wr1RegCompleteHandler
    _I2C1_DO_TX->_wr2RegCompleteHandler
    _I2C1_DO_SEND_ADR_WRITE->_I2C1_MasterSendTxData
    _I2C1_DO_RX->_I2C1_CallbackReturnReset
    _I2C1_DO_RX->_I2C1_CallbackReturnStop
    _I2C1_DO_RX->_rd1RegCompleteHandler
    _I2C1_DO_RX->_rd2RegCompleteHandler
    _I2C1_DO_RX->_rdBlkRegCompleteHandler
    _I2C1_DO_RX->_wr1RegCompleteHandler
    _I2C1_DO_RX->_wr2RegCompleteHandler
    _I2C1_DO_ADDRESS_NACK->_I2C1_CallbackReturnReset
    _I2C1_DO_ADDRESS_NACK->_I2C1_CallbackReturnStop
    _I2C1_DO_ADDRESS_NACK->_rd1RegCompleteHandler
    _I2C1_DO_ADDRESS_NACK->_rd2RegCompleteHandler
    _I2C1_DO_ADDRESS_NACK->_rdBlkRegCompleteHandler
    _I2C1_DO_ADDRESS_NACK->_wr1RegCompleteHandler
    _I2C1_DO_ADDRESS_NACK->_wr2RegCompleteHandler
    _wr2RegCompleteHandler->_I2C1_SetDataCompleteCallback
    _wr1RegCompleteHandler->_I2C1_SetDataCompleteCallback
    _rdBlkRegCompleteHandler->_I2C1_SetDataCompleteCallback
    _rd2RegCompleteHandler->_I2C1_SetDataCompleteCallback
    _rd1RegCompleteHandler->_I2C1_SetDataCompleteCallback
    _I2C1_SetDataCompleteCallback->i1_I2C1_SetCallback

Critical Paths under _main in BANK0

    _main->_I2C1_WriteNBytes
    _I2C1_WriteNBytes->_I2C1_SetAddressNackCallback
    _I2C1_SetAddressNackCallback->_I2C1_SetCallback
    _I2C1_Open->_I2C1_SetInterruptHandler
    _I2C1_MasterWrite->_I2C1_MasterOperation

Critical Paths under _INTERRUPT_InterruptManager in BANK0

    _I2C1_MasterIsr->_I2C1_MasterFsm

Critical Paths under _main in BANK1

    None.

Critical Paths under _INTERRUPT_InterruptManager in BANK1

    None.

Critical Paths under _main in BANK2

    None.

Critical Paths under _INTERRUPT_InterruptManager in BANK2

    None.

Critical Paths under _main in BANK3

    None.

Critical Paths under _INTERRUPT_InterruptManager in BANK3

    None.

Critical Paths under _main in BANK4

    None.

Critical Paths under _INTERRUPT_InterruptManager in BANK4

    None.

Critical Paths under _main in BANK5

    None.

Critical Paths under _INTERRUPT_InterruptManager in BANK5

    None.

Critical Paths under _main in BANK6

    None.

Critical Paths under _INTERRUPT_InterruptManager in BANK6

    None.

Critical Paths under _main in BANK7

    None.

Critical Paths under _INTERRUPT_InterruptManager in BANK7

    None.

Critical Paths under _main in BANK8

    None.

Critical Paths under _INTERRUPT_InterruptManager in BANK8

    None.

Critical Paths under _main in BANK9

    None.

Critical Paths under _INTERRUPT_InterruptManager in BANK9

    None.

Critical Paths under _main in BANK10

    None.

Critical Paths under _INTERRUPT_InterruptManager in BANK10

    None.

Critical Paths under _main in BANK11

    None.

Critical Paths under _INTERRUPT_InterruptManager in BANK11

    None.

Critical Paths under _main in BANK12

    None.

Critical Paths under _INTERRUPT_InterruptManager in BANK12

    None.

Critical Paths under _main in BANK13

    None.

Critical Paths under _INTERRUPT_InterruptManager in BANK13

    None.

Critical Paths under _main in BANK14

    None.

Critical Paths under _INTERRUPT_InterruptManager in BANK14

    None.

Critical Paths under _main in BANK15

    None.

Critical Paths under _INTERRUPT_InterruptManager in BANK15

    None.

Critical Paths under _main in BANK16

    None.

Critical Paths under _INTERRUPT_InterruptManager in BANK16

    None.

Critical Paths under _main in BANK17

    None.

Critical Paths under _INTERRUPT_InterruptManager in BANK17

    None.

Critical Paths under _main in BANK18

    None.

Critical Paths under _INTERRUPT_InterruptManager in BANK18

    None.

Critical Paths under _main in BANK19

    None.

Critical Paths under _INTERRUPT_InterruptManager in BANK19

    None.

Critical Paths under _main in BANK20

    None.

Critical Paths under _INTERRUPT_InterruptManager in BANK20

    None.

Critical Paths under _main in BANK21

    None.

Critical Paths under _INTERRUPT_InterruptManager in BANK21

    None.

Critical Paths under _main in BANK22

    None.

Critical Paths under _INTERRUPT_InterruptManager in BANK22

    None.

Critical Paths under _main in BANK23

    None.

Critical Paths under _INTERRUPT_InterruptManager in BANK23

    None.

Critical Paths under _main in BANK24

    None.

Critical Paths under _INTERRUPT_InterruptManager in BANK24

    None.

Critical Paths under _main in BANK25

    None.

Critical Paths under _INTERRUPT_InterruptManager in BANK25

    None.

Call Graph Tables:

 ---------------------------------------------------------------------------------
 (Depth) Function   	        Calls       Base Space   Used Autos Params    Refs
 ---------------------------------------------------------------------------------
 (0) _main                                                 2     2      0    3472
                                             16 BANK0      2     2      0
                   _I2C1_WriteNBytes
                  _SYSTEM_Initialize
 ---------------------------------------------------------------------------------
 (1) _SYSTEM_Initialize                                    0     0      0       0
                    _I2C1_Initialize
              _OSCILLATOR_Initialize
             _PIN_MANAGER_Initialize
                     _PMD_Initialize
                     _WDT_Initialize
 ---------------------------------------------------------------------------------
 (2) _WDT_Initialize                                       0     0      0       0
 ---------------------------------------------------------------------------------
 (2) _PMD_Initialize                                       0     0      0       0
 ---------------------------------------------------------------------------------
 (2) _PIN_MANAGER_Initialize                               0     0      0       0
 ---------------------------------------------------------------------------------
 (2) _OSCILLATOR_Initialize                                0     0      0       0
 ---------------------------------------------------------------------------------
 (2) _I2C1_Initialize                                      0     0      0       0
 ---------------------------------------------------------------------------------
 (1) _I2C1_WriteNBytes                                     4     1      3    3472
                                             12 BANK0      4     1      3
                         _I2C1_Close
                   _I2C1_MasterWrite
                          _I2C1_Open
        _I2C1_SetAddressNackCallback
                     _I2C1_SetBuffer
 ---------------------------------------------------------------------------------
 (2) _I2C1_SetBuffer                                       4     2      2    1222
                                              3 BANK0      4     2      2
 ---------------------------------------------------------------------------------
 (2) _I2C1_SetAddressNackCallback                          4     1      3    1818
                                              8 BANK0      4     1      3
                   _I2C1_SetCallback
 ---------------------------------------------------------------------------------
 (3) _I2C1_SetCallback                                     5     2      3     862
                                              3 BANK0      5     2      3
 ---------------------------------------------------------------------------------
 (2) _I2C1_Open                                            3     3      0     144
                                              5 BANK0      3     3      0
                _I2C1_MasterClearIrq
               _I2C1_MasterEnableIrq
                    _I2C1_MasterOpen
           _I2C1_SetInterruptHandler
 ---------------------------------------------------------------------------------
 (3) _I2C1_SetInterruptHandler                             2     0      2      98
                                              3 BANK0      2     0      2
 ---------------------------------------------------------------------------------
 (3) _I2C1_MasterOpen                                      0     0      0       0
 ---------------------------------------------------------------------------------
 (3) _I2C1_MasterEnableIrq                                 0     0      0       0
 ---------------------------------------------------------------------------------
 (2) _I2C1_MasterWrite                                     0     0      0      46
               _I2C1_MasterOperation
 ---------------------------------------------------------------------------------
 (3) _I2C1_MasterOperation                                 3     3      0      46
                                              3 BANK0      3     3      0
                   _I2C1_MasterStart
 ---------------------------------------------------------------------------------
 (4) _I2C1_MasterStart                                     0     0      0       0
 ---------------------------------------------------------------------------------
 (2) _I2C1_Close                                           2     2      0      24
                                              3 BANK0      2     2      0
                _I2C1_MasterClearIrq
                   _I2C1_MasterClose
              _I2C1_MasterDisableIrq
 ---------------------------------------------------------------------------------
 (3) _I2C1_MasterDisableIrq                                0     0      0       0
 ---------------------------------------------------------------------------------
 (3) _I2C1_MasterClose                                     0     0      0       0
 ---------------------------------------------------------------------------------
 (3) _I2C1_MasterClearIrq                                  0     0      0       0
 ---------------------------------------------------------------------------------
 Estimated maximum stack depth 4
 ---------------------------------------------------------------------------------
 (Depth) Function   	        Calls       Base Space   Used Autos Params    Refs
 ---------------------------------------------------------------------------------
 (5) _INTERRUPT_InterruptManager                           0     0      0   40534
                   Absolute function *
                     _I2C1_MasterIsr *
 ---------------------------------------------------------------------------------
 (6) _I2C1_MasterIsr                                       0     0      0   40534
                     _I2C1_MasterFsm
 ---------------------------------------------------------------------------------
 (7) _I2C1_MasterFsm                                       3     3      0   40534
                                              0 BANK0      3     3      0
               _I2C1_DO_ADDRESS_NACK *
                       _I2C1_DO_IDLE *
                       _I2C1_DO_RCEN *
                      _I2C1_DO_RESET *
                         _I2C1_DO_RX *
                     _I2C1_DO_RX_ACK *
            _I2C1_DO_RX_NACK_RESTART *
               _I2C1_DO_RX_NACK_STOP *
              _I2C1_DO_SEND_ADR_READ *
             _I2C1_DO_SEND_ADR_WRITE *
               _I2C1_DO_SEND_RESTART *
          _I2C1_DO_SEND_RESTART_READ *
         _I2C1_DO_SEND_RESTART_WRITE *
                  _I2C1_DO_SEND_STOP *
                         _I2C1_DO_TX *
                   _I2C1_DO_TX_EMPTY *
                  _I2C1_MasterIsNack
              i1_I2C1_MasterClearIrq
 ---------------------------------------------------------------------------------
 (8) i1_I2C1_MasterClearIrq                                0     0      0       0
 ---------------------------------------------------------------------------------
 (8) _I2C1_DO_TX_EMPTY                                     3     3      0   10117
                                             10 COMMON     3     3      0
                   Absolute function *
           _I2C1_CallbackReturnReset *
            _I2C1_CallbackReturnStop *
               _I2C1_DO_SEND_RESTART
                  _I2C1_DO_SEND_STOP
                  _I2C1_MasterSetIrq
              _rd1RegCompleteHandler *
              _rd2RegCompleteHandler *
            _rdBlkRegCompleteHandler *
              _wr1RegCompleteHandler *
              _wr2RegCompleteHandler *
 ---------------------------------------------------------------------------------
 (9) _I2C1_MasterSetIrq                                    0     0      0       0
 ---------------------------------------------------------------------------------
 (8) _I2C1_DO_TX                                           3     3      0   10139
                                             10 COMMON     3     3      0
                   Absolute function *
           _I2C1_CallbackReturnReset *
            _I2C1_CallbackReturnStop *
          _I2C1_DO_SEND_RESTART_READ
         _I2C1_DO_SEND_RESTART_WRITE
                  _I2C1_DO_SEND_STOP
                  _I2C1_MasterIsNack
              _I2C1_MasterSendTxData
              _rd1RegCompleteHandler *
              _rd2RegCompleteHandler *
            _rdBlkRegCompleteHandler *
              _wr1RegCompleteHandler *
              _wr2RegCompleteHandler *
 ---------------------------------------------------------------------------------
 (8) _I2C1_MasterIsNack                                    0     0      0       0
 ---------------------------------------------------------------------------------
 (9) _I2C1_DO_SEND_RESTART_WRITE                           0     0      0       0
           _I2C1_MasterEnableRestart
 ---------------------------------------------------------------------------------
 (9) _I2C1_DO_SEND_RESTART_READ                            0     0      0       0
           _I2C1_MasterEnableRestart
 ---------------------------------------------------------------------------------
 (8) _I2C1_DO_SEND_ADR_WRITE                               0     0      0      22
              _I2C1_MasterSendTxData
 ---------------------------------------------------------------------------------
 (8) _I2C1_DO_SEND_ADR_READ                                0     0      0      22
              _I2C1_MasterSendTxData
 ---------------------------------------------------------------------------------
 (9) _I2C1_MasterSendTxData                                1     1      0      22
                                              0 COMMON     1     1      0
 ---------------------------------------------------------------------------------
 (8) _I2C1_DO_RX_ACK                                       0     0      0       0
                 _I2C1_MasterSendAck
 ---------------------------------------------------------------------------------
 (8) _I2C1_DO_RX                                           3     3      0   10117
                                             10 COMMON     3     3      0
                   Absolute function *
           _I2C1_CallbackReturnReset *
            _I2C1_CallbackReturnStop *
            _I2C1_DO_RX_NACK_RESTART
               _I2C1_DO_RX_NACK_STOP
               _I2C1_MasterGetRxData
                 _I2C1_MasterSendAck
              _rd1RegCompleteHandler *
              _rd2RegCompleteHandler *
            _rdBlkRegCompleteHandler *
              _wr1RegCompleteHandler *
              _wr2RegCompleteHandler *
 ---------------------------------------------------------------------------------
 (9) _I2C1_MasterSendAck                                   0     0      0       0
 ---------------------------------------------------------------------------------
 (9) _I2C1_MasterGetRxData                                 0     0      0       0
 ---------------------------------------------------------------------------------
 (8) _I2C1_DO_RX_NACK_STOP                                 0     0      0       0
                _I2C1_MasterSendNack
 ---------------------------------------------------------------------------------
 (8) _I2C1_DO_RX_NACK_RESTART                              0     0      0       0
                _I2C1_MasterSendNack
 ---------------------------------------------------------------------------------
 (9) _I2C1_MasterSendNack                                  0     0      0       0
 ---------------------------------------------------------------------------------
 (8) _I2C1_DO_RESET                                        0     0      0       0
 ---------------------------------------------------------------------------------
 (8) _I2C1_DO_RCEN                                         0     0      0       0
                 _I2C1_MasterStartRx
 ---------------------------------------------------------------------------------
 (9) _I2C1_MasterStartRx                                   0     0      0       0
 ---------------------------------------------------------------------------------
 (8) _I2C1_DO_IDLE                                         0     0      0       0
 ---------------------------------------------------------------------------------
 (8) _I2C1_DO_ADDRESS_NACK                                 3     3      0   10117
                                             10 COMMON     3     3      0
                   Absolute function *
           _I2C1_CallbackReturnReset *
            _I2C1_CallbackReturnStop *
               _I2C1_DO_SEND_RESTART
                  _I2C1_DO_SEND_STOP
              _rd1RegCompleteHandler *
              _rd2RegCompleteHandler *
            _rdBlkRegCompleteHandler *
              _wr1RegCompleteHandler *
              _wr2RegCompleteHandler *
 ---------------------------------------------------------------------------------
 (9) _wr2RegCompleteHandler                                1     0      1    1966
                                              9 COMMON     1     0      1
       _I2C1_SetDataCompleteCallback
                   i1_I2C1_SetBuffer
 ---------------------------------------------------------------------------------
 (9) _wr1RegCompleteHandler                                1     0      1    1966
                                              9 COMMON     1     0      1
       _I2C1_SetDataCompleteCallback
                   i1_I2C1_SetBuffer
 ---------------------------------------------------------------------------------
 (9) _rdBlkRegCompleteHandler                              1     0      1    1988
                                              9 COMMON     1     0      1
       _I2C1_SetDataCompleteCallback
                   i1_I2C1_SetBuffer
 ---------------------------------------------------------------------------------
 (9) _rd2RegCompleteHandler                                1     0      1    1966
                                              9 COMMON     1     0      1
       _I2C1_SetDataCompleteCallback
                   i1_I2C1_SetBuffer
 ---------------------------------------------------------------------------------
 (9) _rd1RegCompleteHandler                                1     0      1    1966
                                              9 COMMON     1     0      1
       _I2C1_SetDataCompleteCallback
                   i1_I2C1_SetBuffer
 ---------------------------------------------------------------------------------
 (10) i1_I2C1_SetBuffer                                    4     2      2     174
                                              0 COMMON     4     2      2
 ---------------------------------------------------------------------------------
 (10) _I2C1_SetDataCompleteCallback                        4     1      3    1770
                                              5 COMMON     4     1      3
                 i1_I2C1_SetCallback
 ---------------------------------------------------------------------------------
 (11) i1_I2C1_SetCallback                                  5     2      3     206
                                              0 COMMON     5     2      3
 ---------------------------------------------------------------------------------
 (9) _I2C1_DO_SEND_STOP                                    0     0      0       0
                    _I2C1_MasterStop
 ---------------------------------------------------------------------------------
 (10) _I2C1_MasterStop                                     0     0      0       0
 ---------------------------------------------------------------------------------
 (9) _I2C1_DO_SEND_RESTART                                 0     0      0       0
           _I2C1_MasterEnableRestart
 ---------------------------------------------------------------------------------
 (10) _I2C1_MasterEnableRestart                            0     0      0       0
 ---------------------------------------------------------------------------------
 (9) _I2C1_CallbackReturnStop                              1     0      1       0
                                              9 COMMON     1     0      1
 ---------------------------------------------------------------------------------
 (9) _I2C1_CallbackReturnReset                             1     0      1     265
                                              9 COMMON     1     0      1
 ---------------------------------------------------------------------------------
 (9) Absolute function(Fake)                               1     0      1       0
 ---------------------------------------------------------------------------------
 Estimated maximum stack depth 11
 ---------------------------------------------------------------------------------

 Call Graph Graphs:

 _main (ROOT)
   _I2C1_WriteNBytes
     _I2C1_Close
       _I2C1_MasterClearIrq
       _I2C1_MasterClose
       _I2C1_MasterDisableIrq
     _I2C1_MasterWrite
       _I2C1_MasterOperation
         _I2C1_MasterStart
     _I2C1_Open
       _I2C1_MasterClearIrq
       _I2C1_MasterEnableIrq
       _I2C1_MasterOpen
       _I2C1_SetInterruptHandler
     _I2C1_SetAddressNackCallback
       _I2C1_SetCallback
     _I2C1_SetBuffer
   _SYSTEM_Initialize
     _I2C1_Initialize
     _OSCILLATOR_Initialize
     _PIN_MANAGER_Initialize
     _PMD_Initialize
     _WDT_Initialize

 _INTERRUPT_InterruptManager (ROOT)
   Absolute function(Fake) *
   _I2C1_MasterIsr *
     _I2C1_MasterFsm
       _I2C1_DO_ADDRESS_NACK *
         Absolute function(Fake) *
         _I2C1_CallbackReturnReset *
         _I2C1_CallbackReturnStop *
         _I2C1_DO_SEND_RESTART *
           _I2C1_MasterEnableRestart
         _I2C1_DO_SEND_STOP *
           _I2C1_MasterStop
         _rd1RegCompleteHandler *
           _I2C1_SetDataCompleteCallback
             i1_I2C1_SetCallback
           i1_I2C1_SetBuffer
         _rd2RegCompleteHandler *
           _I2C1_SetDataCompleteCallback
             i1_I2C1_SetCallback
           i1_I2C1_SetBuffer
         _rdBlkRegCompleteHandler *
           _I2C1_SetDataCompleteCallback
             i1_I2C1_SetCallback
           i1_I2C1_SetBuffer
         _wr1RegCompleteHandler *
           _I2C1_SetDataCompleteCallback
             i1_I2C1_SetCallback
           i1_I2C1_SetBuffer
         _wr2RegCompleteHandler *
           _I2C1_SetDataCompleteCallback
             i1_I2C1_SetCallback
           i1_I2C1_SetBuffer
       _I2C1_DO_IDLE *
       _I2C1_DO_RCEN *
         _I2C1_MasterStartRx
       _I2C1_DO_RESET *
       _I2C1_DO_RX *
         Absolute function(Fake) *
         _I2C1_CallbackReturnReset *
         _I2C1_CallbackReturnStop *
         _I2C1_DO_RX_NACK_RESTART *
           _I2C1_MasterSendNack
         _I2C1_DO_RX_NACK_STOP *
           _I2C1_MasterSendNack
         _I2C1_MasterGetRxData *
         _I2C1_MasterSendAck *
         _rd1RegCompleteHandler *
           _I2C1_SetDataCompleteCallback
             i1_I2C1_SetCallback
           i1_I2C1_SetBuffer
         _rd2RegCompleteHandler *
           _I2C1_SetDataCompleteCallback
             i1_I2C1_SetCallback
           i1_I2C1_SetBuffer
         _rdBlkRegCompleteHandler *
           _I2C1_SetDataCompleteCallback
             i1_I2C1_SetCallback
           i1_I2C1_SetBuffer
         _wr1RegCompleteHandler *
           _I2C1_SetDataCompleteCallback
             i1_I2C1_SetCallback
           i1_I2C1_SetBuffer
         _wr2RegCompleteHandler *
           _I2C1_SetDataCompleteCallback
             i1_I2C1_SetCallback
           i1_I2C1_SetBuffer
       _I2C1_DO_RX_ACK *
         _I2C1_MasterSendAck
       _I2C1_DO_RX_NACK_RESTART *
         _I2C1_MasterSendNack
       _I2C1_DO_RX_NACK_STOP *
         _I2C1_MasterSendNack
       _I2C1_DO_SEND_ADR_READ *
         _I2C1_MasterSendTxData
       _I2C1_DO_SEND_ADR_WRITE *
         _I2C1_MasterSendTxData
       _I2C1_DO_SEND_RESTART *
         _I2C1_MasterEnableRestart
       _I2C1_DO_SEND_RESTART_READ *
         _I2C1_MasterEnableRestart
       _I2C1_DO_SEND_RESTART_WRITE *
         _I2C1_MasterEnableRestart
       _I2C1_DO_SEND_STOP *
         _I2C1_MasterStop
       _I2C1_DO_TX *
         Absolute function(Fake) *
         _I2C1_CallbackReturnReset *
         _I2C1_CallbackReturnStop *
         _I2C1_DO_SEND_RESTART_READ *
           _I2C1_MasterEnableRestart
         _I2C1_DO_SEND_RESTART_WRITE *
           _I2C1_MasterEnableRestart
         _I2C1_DO_SEND_STOP *
           _I2C1_MasterStop
         _I2C1_MasterIsNack *
         _I2C1_MasterSendTxData *
         _rd1RegCompleteHandler *
           _I2C1_SetDataCompleteCallback
             i1_I2C1_SetCallback
           i1_I2C1_SetBuffer
         _rd2RegCompleteHandler *
           _I2C1_SetDataCompleteCallback
             i1_I2C1_SetCallback
           i1_I2C1_SetBuffer
         _rdBlkRegCompleteHandler *
           _I2C1_SetDataCompleteCallback
             i1_I2C1_SetCallback
           i1_I2C1_SetBuffer
         _wr1RegCompleteHandler *
           _I2C1_SetDataCompleteCallback
             i1_I2C1_SetCallback
           i1_I2C1_SetBuffer
         _wr2RegCompleteHandler *
           _I2C1_SetDataCompleteCallback
             i1_I2C1_SetCallback
           i1_I2C1_SetBuffer
       _I2C1_DO_TX_EMPTY *
         Absolute function(Fake) *
         _I2C1_CallbackReturnReset *
         _I2C1_CallbackReturnStop *
         _I2C1_DO_SEND_RESTART *
           _I2C1_MasterEnableRestart
         _I2C1_DO_SEND_STOP *
           _I2C1_MasterStop
         _I2C1_MasterSetIrq *
         _rd1RegCompleteHandler *
           _I2C1_SetDataCompleteCallback
             i1_I2C1_SetCallback
           i1_I2C1_SetBuffer
         _rd2RegCompleteHandler *
           _I2C1_SetDataCompleteCallback
             i1_I2C1_SetCallback
           i1_I2C1_SetBuffer
         _rdBlkRegCompleteHandler *
           _I2C1_SetDataCompleteCallback
             i1_I2C1_SetCallback
           i1_I2C1_SetBuffer
         _wr1RegCompleteHandler *
           _I2C1_SetDataCompleteCallback
             i1_I2C1_SetCallback
           i1_I2C1_SetBuffer
         _wr2RegCompleteHandler *
           _I2C1_SetDataCompleteCallback
             i1_I2C1_SetCallback
           i1_I2C1_SetBuffer
       _I2C1_MasterIsNack *
       i1_I2C1_MasterClearIrq *

 Address spaces:
Name               Size   Autos  Total    Cost      Usage
BIGRAM             7F0      0       0       0        0.0%
EEDATA             100      0       0       0        0.0%
NULL                 0      0       0       0        0.0%
CODE                 0      0       0       0        0.0%
BITCOMMON            E      0       0       1        0.0%
BITSFR0              0      0       0       1        0.0%
SFR0                 0      0       0       1        0.0%
COMMON               E      D       D       2       92.9%
BITSFR1              0      0       0       2        0.0%
SFR1                 0      0       0       2        0.0%
BITSFR2              0      0       0       3        0.0%
SFR2                 0      0       0       3        0.0%
STACK                0      0       0       3        0.0%
BITBANK0            50      0       0       4        0.0%
BITSFR3              0      0       0       4        0.0%
SFR3                 0      0       0       4        0.0%
BANK0               50     12      32       5       62.5%
BITSFR4              0      0       0       5        0.0%
SFR4                 0      0       0       5        0.0%
BITBANK1            50      0       0       6        0.0%
BITSFR5              0      0       0       6        0.0%
SFR5                 0      0       0       6        0.0%
BANK1               50      0       0       7        0.0%
BITSFR6              0      0       0       7        0.0%
SFR6                 0      0       0       7        0.0%
BITBANK2            50      0       0       8        0.0%
BITSFR7              0      0       0       8        0.0%
SFR7                 0      0       0       8        0.0%
BANK2               50      0       0       9        0.0%
BITSFR8              0      0       0       9        0.0%
SFR8                 0      0       0       9        0.0%
BITBANK3            50      0       0      10        0.0%
BITSFR9              0      0       0      10        0.0%
SFR9                 0      0       0      10        0.0%
BANK3               50      0       0      11        0.0%
BITSFR10             0      0       0      11        0.0%
SFR10                0      0       0      11        0.0%
BITBANK4            50      0       0      12        0.0%
BITSFR11             0      0       0      12        0.0%
SFR11                0      0       0      12        0.0%
BANK4               50      0       0      13        0.0%
BITSFR12             0      0       0      13        0.0%
SFR12                0      0       0      13        0.0%
BITSFR13             0      0       0      14        0.0%
SFR13                0      0       0      14        0.0%
ABS                  0      0      3F      14        0.0%
BITBANK5            50      0       0      15        0.0%
BITSFR14             0      0       0      15        0.0%
SFR14                0      0       0      15        0.0%
BANK5               50      0       0      16        0.0%
BITSFR15             0      0       0      16        0.0%
SFR15                0      0       0      16        0.0%
BITBANK6            50      0       0      17        0.0%
BITSFR16             0      0       0      17        0.0%
SFR16                0      0       0      17        0.0%
BANK6               50      0       0      18        0.0%
BITSFR17             0      0       0      18        0.0%
SFR17                0      0       0      18        0.0%
BITBANK7            50      0       0      19        0.0%
BITSFR18             0      0       0      19        0.0%
SFR18                0      0       0      19        0.0%
BANK7               50      0       0      20        0.0%
BITSFR19             0      0       0      20        0.0%
SFR19                0      0       0      20        0.0%
BITBANK8            50      0       0      21        0.0%
BITSFR20             0      0       0      21        0.0%
SFR20                0      0       0      21        0.0%
BANK8               50      0       0      22        0.0%
BITSFR21             0      0       0      22        0.0%
SFR21                0      0       0      22        0.0%
BITBANK9            50      0       0      23        0.0%
BITSFR22             0      0       0      23        0.0%
SFR22                0      0       0      23        0.0%
BANK9               50      0       0      24        0.0%
BITSFR23             0      0       0      24        0.0%
SFR23                0      0       0      24        0.0%
BITBANK10           50      0       0      25        0.0%
BITSFR24             0      0       0      25        0.0%
SFR24                0      0       0      25        0.0%
BANK10              50      0       0      26        0.0%
BITSFR25             0      0       0      26        0.0%
SFR25                0      0       0      26        0.0%
BITBANK11           50      0       0      27        0.0%
BITSFR26             0      0       0      27        0.0%
SFR26                0      0       0      27        0.0%
BITSFR27             0      0       0      28        0.0%
SFR27                0      0       0      28        0.0%
DATA                 0      0      3F      28        0.0%
BANK11              50      0       0      29        0.0%
BITSFR28             0      0       0      29        0.0%
SFR28                0      0       0      29        0.0%
BITBANK12           50      0       0      30        0.0%
BITSFR29             0      0       0      30        0.0%
SFR29                0      0       0      30        0.0%
BANK12              50      0       0      31        0.0%
BITSFR30             0      0       0      31        0.0%
SFR30                0      0       0      31        0.0%
BITBANK13           50      0       0      32        0.0%
BITSFR31             0      0       0      32        0.0%
SFR31                0      0       0      32        0.0%
BANK13              50      0       0      33        0.0%
BITBANK14           50      0       0      34        0.0%
BANK14              50      0       0      35        0.0%
BITBANK15           50      0       0      36        0.0%
BANK15              50      0       0      37        0.0%
BITBANK16           50      0       0      38        0.0%
BANK16              50      0       0      39        0.0%
BITBANK17           50      0       0      40        0.0%
BANK17              50      0       0      41        0.0%
BITBANK18           50      0       0      42        0.0%
BANK18              50      0       0      43        0.0%
BITBANK19           50      0       0      44        0.0%
BANK19              50      0       0      45        0.0%
BITBANK20           50      0       0      46        0.0%
BANK20              50      0       0      47        0.0%
BITBANK21           50      0       0      48        0.0%
BANK21              50      0       0      49        0.0%
BITBANK22           50      0       0      50        0.0%
BANK22              50      0       0      51        0.0%
BITBANK23           50      0       0      52        0.0%
BANK23              50      0       0      53        0.0%
BITBANK24           50      0       0      54        0.0%
BANK24              50      0       0      55        0.0%
BITBANK25           20      0       0      56        0.0%
BANK25              20      0       0      57        0.0%


Microchip Technology PIC Macro Assembler V2.10 build 88905656 
Symbol Table                                                                                   Sun Nov 24 01:47:37 2019

                             __CFG_CP$OFF 0000                                        l71 01F7  
                             __CFG_LVP$ON 0000                                       l211 0382  
                                     l231 03C2                                       l215 0114  
                                     l401 040A                                       l225 02A7  
                                     l219 02C3                                       l261 0245  
                                     l422 0407                                       l238 033F  
                                     l431 0413                                       l247 035D  
                                     l256 03B7                                       l428 040D  
                                     l380 036B                                       l542 0148  
                                     l383 0410                                       l480 032F  
                                     l483 038B                                       l486 03F8  
                                     l489 039C                                       u400 029B  
                                     u401 029A                                       u410 0227  
                                     u411 0226                                       u500 01DB  
                                     u501 01DA                                       u510 01F7  
                                     u511 01F6                                       u450 00D8  
                            __CFG_CPD$OFF 0000                                       u451 00D7  
                                     u380 0363                                       u460 0336  
                                     u381 0362                                       u461 0335  
                                     u470 02AF                                       u390 0294  
                                     u471 02AE                                       u391 0293  
                                     u707 0215                     ?_I2C1_MasterOperation 0070  
                 __size_of_PMD_Initialize 0008                                       wreg 0009  
                  ?_I2C1_MasterSendTxData 0070         __size_of_I2C1_MasterEnableRestart 0003  
                    _I2C1_DO_RX_NACK_STOP 03CD                 ?_I2C1_MasterEnableRestart 0070  
                    I2C1_SetBuffer@buffer 0046                    ?i1_I2C1_MasterClearIrq 0070  
                 ??_rd2RegCompleteHandler 007A                                      l2030 035E  
                                    l2032 0363                                      l2050 0294  
                                    l2042 0405                                      l2034 0367  
                                    l2026 03B2                                      l2028 0411  
                                    l2044 040B                                      l2060 02A2  
                                    l2052 0295                                      l2036 0368  
                                    l2300 0381                                      l2046 040E  
                                    l2054 0296                                      l2062 02A5  
                                    l2038 036A                                      l2230 00D8  
                                    l2070 0238                                      l2056 029B  
                                    l2048 028E                                      l2240 00EC  
                                    l2232 00DC                                      l2320 011E  
                                    l2312 0395                                      l2058 029E  
                                    l2250 00FC                                      l2242 00ED  
                                    l2234 00DD                                      l2066 0221  
                                    l2330 0132                                      l2322 0120  
                                    l2314 0115                                      l2252 0101  
                                    l2244 00F2                                      l2236 00DE  
                                    l2260 0113                                      l2228 00D2  
                                    l2068 0227                                      l2340 013D  
                                    l2332 0134                                      l2324 0123  
                                    l2316 0119                                      l2500 020F  
                                    l2254 0108                                      l2246 00F6  
                                    l2238 00E7                                      l2270 0350  
                                    l2350 0386                                      l2342 0140  
                                    l2334 0136                                      l2326 0125  
                                    l2318 011C                                      l2280 02B0  
                                    l2272 03BE                                      l2256 010B  
                                    l2248 00FB                                      l2264 0332  
                                    l2360 01D1                                      l2352 0387  
                                    l2344 0143                                      l2336 0139  
                                    l2328 012F                                      l2282 02B4  
                                    l2290 02C2                                      l2258 010E  
                                    l2266 0336                                      l2362 01DB  
                                    l2354 038A                                      l2346 0145  
                                    l2338 013B                                      l2284 02B7  
                                    l2276 02A8                                      l2268 033E  
                                    l2364 01E4                                      l2348 0383  
                                    l2356 03F5                                      l2380 032C  
                                    l2372 0320                                      l2286 02BA  
                                    l2278 02AF                                      l2366 01EC  
                                    l2358 01D1                                      l2294 0379  
                                    l2374 0323                                      l2288 02BD  
                                    l2368 01EF                                      l2296 037E  
                                    l2376 0326                                      l2298 037F  
                                    l2378 0329                                      l2490 01F8  
                                    l2492 01FB                                      l2494 01FC  
                                    l2496 01FD                                      l2498 020A  
                                    l1964 0408                                      _LATA 010C  
                                    _LATB 010D                                      _LATC 010E  
                                    _PMD0 0911                                      _PMD1 0912  
                                    _PMD2 0913                                      _PMD3 0914  
                                    _PMD4 0915                                      _PMD5 0916  
                                    i1l92 030E                                      i1l95 02FD  
                                    i1l98 02EC                                      _WPUA 020C  
                                    _WPUB 020D                                      _WPUC 020E  
                 ??_wr2RegCompleteHandler 007A                          ??_I2C1_MasterFsm 0040  
                        ??_I2C1_MasterIsr 007D          __size_of_I2C1_DO_RX_NACK_RESTART 0005  
                            __CFG_WRT$OFF 0000                             __CFG_FCMEN$ON 0000  
               ??_I2C1_CallbackReturnStop 007A                                      _main 01F8  
                                    fsr0h 0005                                      fsr1h 0007  
                                    indf0 0000                                      fsr0l 0004  
                                    indf1 0001                                      fsr1l 0006  
                                    btemp 007E                             __CFG_BOREN$ON 0000  
                           __CFG_BORV$LOW 0000                                      start 0027  
                        ??_I2C1_SetBuffer 0045                             __CFG_CSWEN$ON 0000  
                           __CFG_MCLRE$ON 0000          __size_of_rdBlkRegCompleteHandler 0018  
           I2C1_CallbackReturnStop@funPtr 0079            __size_of_OSCILLATOR_Initialize 0009  
           __end_of_OSCILLATOR_Initialize 038C                         __end_of_I2C1_Open 0115  
                                   ?_main 0070                             __CFG_WDTE$OFF 0000  
                          __CFG_DEBUG$OFF 0000                                     i1l101 031F  
                                   i1l104 02DB                                     i1l241 0378  
                                   i1l410 0400                                     i1l314 0177  
                                   i1l404 0422                                     i1l308 03AB  
                                   i1l332 03EA                                     i1l261 026B  
                                   i1l413 0404                                     i1l341 03DB  
                                   i1l238 034F                                     i1l350 03CC  
                                   i1l407 03BD                                     i1l271 03EF  
                                   i1l335 03E5                                     i1l431 0416  
                                   i1l280 006D                                     i1l344 03D6  
                                   i1l264 03FC                                     i1l353 03C7  
                                   i1l370 0427                                     i1l434 0419  
                                   i1l274 0394                                     i1l338 03E0  
                                   i1l283 0089                                     i1l347 03D1  
                                   i1l268 01CE                                     i1l277 03A4  
                                   i1l367 0429                                     i1l359 01A3  
                                   i1l392 0425                                     i1l296 00A7  
                                   i1l297 00CF                                     i1l386 041C  
                                   i1l580 0025                                     i1l389 03F4  
                                   i1l398 041F                                     i1l584 0025  
                                   i1l579 001A                                     _OSCEN 091D  
                  ??_I2C1_MasterEnableIrq 0043                                     u42_20 003D  
                                   u42_21 003C                                     u43_20 0086  
                                   u43_21 0085                                     u36_20 024D  
                                   u44_20 00A2                                     u36_21 024C  
                                   u44_21 00A1                                     u37_20 0346  
                                   u37_21 0345                                     u48_20 01AC  
                                   u48_21 01AB                                     u49_20 01B4  
                                   u65_20 000A                                     u49_21 01B3  
                                   u65_21 0009                                     _TRISA 008C  
                                   _TRISB 008D                                     _TRISC 008E  
                                   u66_20 000F                                     u66_21 000E  
                  ??_I2C1_MasterGetRxData 0070                                     u67_20 0014  
                                   u67_21 0013                                     u68_20 001F  
                                   u68_21 001E                                     u69_20 0024  
                                   u69_21 0023                     ?_I2C1_DO_RX_NACK_STOP 0070  
              ??_I2C1_CallbackReturnReset 007A                         ??_I2C1_MasterOpen 0043  
                       ??_I2C1_MasterStop 0070                         ??_I2C1_Initialize 0043  
                          _WDT_Initialize 03F5                                     pclath 000A  
                            _I2C_TxBuffer 003F                                     status 0003  
             __size_of_I2C1_MasterSendAck 0004                                     wtemp0 007E  
                            ??_I2C1_DO_RX 007A                              ??_I2C1_DO_TX 007A  
                    i1I2C1_SetCallback@cb 0070                    ??_I2C1_DO_ADDRESS_NACK 007A  
                            ??_I2C1_Close 0043               __size_of_I2C1_MasterStartRx 0003  
                           _fsmStateTable 026C                           __initialization 0029  
                            __end_of_main 021F               ?_INTERRUPT_InterruptManager 0070  
                  ??_I2C1_MasterOperation 0043                                    ??_main 0050  
           __size_of_I2C1_DO_SEND_RESTART 0005                        __end_of_I2C1_DO_RX 00D0  
                      __end_of_I2C1_DO_TX 008A                    __end_of_WDT_Initialize 03F9  
                      __end_of_I2C1_Close 02C4                  __end_of_I2C1_WriteNBytes 01F8  
                                  _ANSELA 018C                                    _ANSELB 018D  
                                  _ANSELC 018E                                    _RA4PPS 0E94  
                                  _RA5PPS 0E95                                    i1l2010 03DC  
                                  i1l2002 03CD                                    i1l2100 003E  
                                  i1l2012 03DF                                    i1l2004 03D0  
                                  i1l2022 0426                                    i1l2008 041D  
                                  i1l2016 0417                                    i1l2120 0086  
                                  i1l2104 0042                                    i1l2200 03C5  
                                  i1l2018 0428                                    i1l2122 0088  
                                  i1l2114 004A                                    i1l2130 008A  
                                  i1l2202 03C6                                    i1l2210 017F  
                                  i1l2116 006F                                    i1l2108 0046  
                                  i1l2132 0094                                    i1l2220 0187  
                                  i1l2118 007B                                    i1l2134 0098  
                                  i1l2214 0183                                    i1l2206 0178  
                                  i1l2310 01B9                                    i1l2302 01A4  
                                  i1l2072 03EB                                    i1l2080 038C  
                                  i1l2144 00A9                                    i1l2136 00A2  
                                  i1l2160 03A5                                    i1l2208 017A  
                                  i1l2304 01A7                                    _ODCONA 028C  
                                  i1l2170 014C                                    i1l2074 03ED  
                                  i1l2082 038E                                    i1l2090 039F  
                                  i1l2154 00B1                                    i1l2138 00A5  
                                  i1l2162 03A7                                    i1l2226 0414  
                                  i1l2306 01AC                                    _ODCONB 028D  
                                  _ODCONC 028E                                    i1l2180 0155  
                                  i1l2076 03EE                                    i1l2084 0393  
                                  i1l2092 03A3                                    i1l2148 00AD  
                                  i1l2164 03AA                                    i1l2308 01B4  
                                  i1l2174 0150                                    i1l2510 001F  
                                  i1l2502 0006                                    i1l2600 0169  
                                  i1l2176 0153                                    i1l2168 0149  
                                  i1l2088 039D                                    i1l2096 0035  
                                  i1l2192 03D2                                    i1l2504 000A  
                                  i1l2186 0159                                    i1l2194 03D5  
                                  i1l2370 03F9                                    i1l2506 000F  
                                  i1l2508 0014                                    i1l1910 025E  
                                  i1l2198 03C3                                    i1l1912 036C  
                                  i1l1920 0341                                    i1l1914 0423  
                                  i1l1906 0247                                    i1l1922 0346  
                                  i1l1930 030D                                    i1l1916 0420  
                                  i1l1908 024D                                    i1l1924 034E  
                                  i1l1950 030F                                    i1l1926 02FE  
                                  i1l1934 02ED                                    i1l1942 02DC  
                                  i1l1918 0401                                    i1l1952 0317  
                                  i1l1928 0306                                    i1l1936 02F5  
                                  i1l1944 02E4                                    i1l1960 02DA  
                                  i1l1954 031E                                    i1l1938 02FC  
                                  i1l1946 02EB                                    i1l1970 03F1  
                                  i1l2594 019B                                    i1l2596 00C1  
                                  i1l1972 03E6                                    i1l1980 03E4  
                                  i1l1958 02C4                                    i1l1990 041A  
                                  i1l1966 03B8                                    i1l2598 005F  
                                  i1l1974 03E9                                    i1l1984 03D7  
                                  i1l1994 03FD                                    i1l1978 03E1  
                                  i1l1986 03DA                                    i1l1996 03C8  
                                  i1l1998 03CB      __size_of_I2C1_SetAddressNackCallback 000E  
                                  _INLVLA 038C                                    _INLVLB 038D  
                                  _INLVLC 038E                                    _OSCFRQ 091F  
                                  _WDTCON 0097                         ?_I2C1_MasterClose 0070  
                 ??_I2C1_MasterDisableIrq 0043                         ?_I2C1_MasterStart 0070  
                       ?_I2C1_MasterWrite 0070                        ??_I2C1_MasterClose 0043  
                        _I2C1_DO_TX_EMPTY 0149                            __CFG_PWRTE$OFF 0000  
                      ??_I2C1_MasterStart 0043                        ??_I2C1_MasterWrite 0046  
                          __CFG_STVREN$ON 0000              __size_of_I2C1_MasterClearIrq 0003  
                __end_ofi1_I2C1_SetBuffer 0350                  ??_I2C1_DO_SEND_ADR_WRITE 0071  
                       ?_I2C1_SetCallback 0043                    ??_I2C1_DO_RX_NACK_STOP 0070  
        __end_of_I2C1_SetInterruptHandler 03B8                     _I2C1_DO_SEND_ADR_READ 038C  
                          _PMD_Initialize 0395             ?_I2C1_SetDataCompleteCallback 0075  
                      ??_I2C1_SetCallback 0046                           ?_WDT_Initialize 0070  
I2C1_SetInterruptHandler@InterruptHandler 0043              __size_of_I2C1_MasterSendNack 0004  
                 _I2C1_DO_RX_NACK_RESTART 03C8                     i1I2C1_SetCallback@idx 0074  
                   i1I2C1_SetCallback@ptr 0072                       I2C1_WriteNBytes@len 004D  
                       _SYSTEM_Initialize 0320            I2C1_SetDataCompleteCallback@cb 0075  
                 __end_of__initialization 0031           I2C1_MasterOperation@returnValue 0045  
                      ?_SYSTEM_Initialize 0070                   _rdBlkRegCompleteHandler 02C4  
                          __pcstackCOMMON 0070                       ??_SYSTEM_Initialize 0043  
        __end_of_I2C1_MasterEnableRestart 0426                    __end_of_PMD_Initialize 039D  
             __size_ofi1_I2C1_SetCallback 0026              ??_I2C1_DO_SEND_RESTART_WRITE 0070  
                 ??_I2C1_MasterSendTxData 0070                   ??i1_I2C1_MasterClearIrq 0070  
                   __end_of_I2C1_DO_RESET 03C8                 __end_of_SYSTEM_Initialize 0330  
                              __pbssBANK0 0020            __size_of_rd2RegCompleteHandler 0011  
           __end_of_rd2RegCompleteHandler 02FE                      I2C1_Open@returnValue 0047  
          __size_of_wr2RegCompleteHandler 0011             __end_of_wr2RegCompleteHandler 0320  
                   _rd1RegCompleteHandler 02FE                         _I2C1_DO_SEND_STOP 03D7  
                   _wr1RegCompleteHandler 02DC       __size_of_I2C1_DO_SEND_RESTART_WRITE 0005  
                              __pmaintext 01F8                  rd1RegCompleteHandler@ptr 0079  
                      ?_I2C1_DO_SEND_STOP 0070                           __CFG_PPS1WAY$ON 0000  
                         _I2C1_MasterOpen 035E                                __pintentry 0004  
                         _I2C1_MasterStop 0420                           _I2C1_Initialize 0379  
                 __size_of_I2C1_DO_RX_ACK 0005                           ?_PMD_Initialize 0070  
                     __CFG_RSTOSC$HFINT32 0000                    ?_I2C1_DO_SEND_ADR_READ 0070  
                     ??_I2C1_DO_SEND_STOP 0070           __size_of_I2C1_DO_SEND_ADR_WRITE 0008  
                       _I2C1_MasterIsNack 03B8                                   _OSCCON1 0919  
                                 _OSCCON3 091B                                 _I2C1_Open 00D0  
               ??_I2C1_DO_RX_NACK_RESTART 0070                                   _OSCTUNE 091E  
                       _I2C1_MasterSetIrq 0417        __size_of_I2C1_DO_SEND_RESTART_READ 0005  
                                 _SSP1ADD 0212                                   _SLRCONA 030C  
                                 _SLRCONB 030D                                   _SLRCONC 030E  
                                 _SSP1BUF 0211                  _I2C1_SetInterruptHandler 03B2  
                      ?_I2C1_MasterIsNack 0070                ?_I2C1_DO_SEND_RESTART_READ 0070  
          ??_I2C1_SetDataCompleteCallback 0078                        ?_I2C1_MasterSetIrq 0070  
                     ??_I2C1_MasterIsNack 0070                 __end_of_I2C1_DO_SEND_STOP 03DC  
               ??_rdBlkRegCompleteHandler 007A                        I2C1_SetCallback@cb 0043  
                     ??_I2C1_MasterSetIrq 0070                             ?_I2C1_DO_IDLE 0070  
                           ?_I2C1_DO_RCEN 0070                                   __ptext1 0320  
                                 __ptext2 03F5                                   __ptext3 0395  
                                 __ptext4 0115                                   __ptext5 0383  
                                 __ptext6 0379                                   __ptext7 01CF  
                                 __ptext8 0330                                   __ptext9 0350  
                _I2C1_MasterEnableRestart 0423                 __end_of_I2C1_MasterIsNack 03BE  
            ?_I2C1_SetAddressNackCallback 0048                     _OSCILLATOR_Initialize 0383  
               __end_of_I2C1_MasterSetIrq 041A                  __end_of_I2C1_DO_TX_EMPTY 0178  
                ??_PIN_MANAGER_Initialize 0043                  wr1RegCompleteHandler@ptr 0079  
                              ?_I2C1_Open 0070             __size_of_I2C1_MasterEnableIrq 0003  
           __size_of_I2C1_MasterGetRxData 0003                  ?_I2C1_CallbackReturnStop 0079  
                       ?_I2C1_WriteNBytes 004C                __size_of_SYSTEM_Initialize 0010  
                                 clrloop0 03AD         __end_of_I2C1_DO_SEND_RESTART_READ 03EB  
                    end_of_initialization 0031                __end_of_I2C1_MasterSendAck 0401  
                     _I2C1_MasterClearIrq 0411                        ??_I2C1_WriteNBytes 004F  
              __end_of_I2C1_MasterStartRx 0420                    ?_rd1RegCompleteHandler 0079  
                  _I2C1_DO_SEND_ADR_WRITE 039D              __end_of_I2C1_DO_SEND_RESTART 03E1  
                 __end_of_I2C1_MasterOpen 036C                    ?_wr1RegCompleteHandler 0079  
                 __end_of_I2C1_MasterStop 0423                   __end_of_I2C1_Initialize 0383  
       __size_of_I2C1_CallbackReturnReset 0002            __size_of_I2C1_MasterDisableIrq 0003  
               ?_I2C1_CallbackReturnReset 0079             __end_of_I2C1_MasterDisableIrq 040E  
                             _I2C1_Status 0020             __size_of_I2C1_DO_ADDRESS_NACK 002C  
                 __size_of_I2C1_MasterFsm 002B                   __size_of_I2C1_MasterIsr 0004  
                     _I2C1_MasterSendNack 0401       __end_of_I2C1_SetAddressNackCallback 035E  
             _I2C1_SetAddressNackCallback 0350                      ?_I2C1_MasterClearIrq 0070  
                          ??_I2C1_DO_IDLE 0070                            ??_I2C1_DO_RCEN 0070  
      __end_of_I2C1_DO_SEND_RESTART_WRITE 03E6                _I2C1_DO_SEND_RESTART_WRITE 03E1  
               __size_of_I2C1_MasterClose 0003                         ?i1_I2C1_SetBuffer 0070  
                        ??_WDT_Initialize 0043                   __size_of_I2C1_SetBuffer 0010  
         __end_of_rdBlkRegCompleteHandler 02DC                 __size_of_I2C1_MasterStart 0003  
               __size_of_I2C1_MasterWrite 0005                      I2C1_WriteNBytes@data 004C  
                      ??i1_I2C1_SetBuffer 0072             __size_of_I2C1_MasterOperation 001C  
           ??_I2C1_SetAddressNackCallback 004B           I2C1_SetDataCompleteCallback@ptr 0077  
          I2C1_CallbackReturnReset@funPtr 0079                      ?_I2C1_MasterSendNack 0070  
                        __CFG_FEXTOSC$OFF 0000                 __size_of_I2C1_SetCallback 0027  
              rdBlkRegCompleteHandler@ptr 0079                __size_of_I2C1_DO_SEND_STOP 0005  
                   ??_I2C1_MasterClearIrq 0043                            _I2C1_DO_RX_ACK 03D2  
                  ?_OSCILLATOR_Initialize 0070                __size_of_I2C1_MasterIsNack 0006  
         __end_of_I2C1_CallbackReturnStop 042A            __size_of_I2C1_MasterSendTxData 0005  
           __end_of_I2C1_MasterSendTxData 03F5                __size_of_I2C1_MasterSetIrq 0003  
                     start_initialization 0029                               ??_I2C1_Open 0045  
           __size_of_I2C1_DO_RX_NACK_STOP 0005            __size_ofi1_I2C1_MasterClearIrq 0003  
         __size_of_PIN_MANAGER_Initialize 0034             __end_ofi1_I2C1_MasterClearIrq 0417  
                   ??_I2C1_MasterSendNack 0070                  I2C1_SetBuffer@bufferSize 0043  
                        ?_I2C1_MasterOpen 0070                          ?_I2C1_MasterStop 0070  
                        ?_I2C1_Initialize 0070                          __CFG_LPBOREN$OFF 0000  
                        ??_PMD_Initialize 0043                    __end_of_I2C1_DO_RX_ACK 03D7  
                 ??_I2C1_DO_SEND_ADR_READ 0070                __end_ofi1_I2C1_SetCallback 026C  
              ??_I2C1_SetInterruptHandler 0045                          I2C1_Open@address 0046  
                    _I2C1_DO_SEND_RESTART 03DC                                 ___latbits 0003  
                           __pcstackBANK0 0040               ??_I2C1_DO_SEND_RESTART_READ 0070  
              i1I2C1_SetBuffer@bufferSize 0070                      __end_of_I2C1_DO_IDLE 03F0  
                    __end_of_I2C1_DO_RCEN 03AC             I2C1_SetAddressNackCallback@cb 0048  
                   _rd2RegCompleteHandler 02ED                     __end_of_fsmStateTable 028C  
                  _PIN_MANAGER_Initialize 0115                     _wr2RegCompleteHandler 030F  
                  _MSSP1_InterruptHandler 003D                ??_I2C1_MasterEnableRestart 0070  
                rd2RegCompleteHandler@ptr 0079                            _I2C1_MasterFsm 01A4  
                          _I2C1_MasterIsr 03F9                    __size_of_I2C1_DO_RESET 0005  
                         ?_I2C1_DO_RX_ACK 0070                          _I2C1_MasterClose 040E  
                          _I2C1_SetBuffer 0330              ??_INTERRUPT_InterruptManager 007D  
                        _I2C1_MasterStart 0408                          _I2C1_MasterWrite 03BE  
                   ?_I2C1_DO_SEND_RESTART 0070                         ?_I2C1_DO_TX_EMPTY 0070  
        __end_of_I2C1_CallbackReturnReset 0428                        ??_I2C1_DO_TX_EMPTY 007A  
                 ??_rd1RegCompleteHandler 007A                   ?_I2C1_DO_SEND_ADR_WRITE 0070  
               I2C1_MasterSendTxData@data 0070                   ??_wr1RegCompleteHandler 007A  
                        _I2C1_SetCallback 021F                                _I2C1_DO_RX 008A  
                              _I2C1_DO_TX 0035                                 clear_ram0 03AC  
                                _PIE1bits 0091                                _I2C1_Close 02A8  
                  __end_of_I2C1_MasterFsm 01CF                    __end_of_I2C1_MasterIsr 03FD  
            __end_of_I2C1_MasterEnableIrq 0408       __size_of_INTERRUPT_InterruptManager 0023  
            __end_of_I2C1_MasterGetRxData 041D                                  _PIR1bits 0011  
        __size_of_I2C1_CallbackReturnStop 0002                 __size_of_I2C1_WriteNBytes 0029  
                      _I2C1_MasterSendAck 03FD                 _I2C1_DO_SEND_RESTART_READ 03E6  
                                _SSP1CON1 0215                                  _SSP1CON2 0216  
                  __end_of_I2C1_SetBuffer 0340                                  _SSP1STAT 0214  
    __end_of_I2C1_SetDataCompleteCallback 0379     __size_of_I2C1_SetDataCompleteCallback 000D  
            _I2C1_SetDataCompleteCallback 036C                        _I2C1_MasterStartRx 041D  
             ?_I2C1_DO_SEND_RESTART_WRITE 0070                       ?_I2C1_MasterSendAck 0070  
                ?_I2C1_DO_RX_NACK_RESTART 0070                       ?_I2C1_MasterStartRx 0070  
            __end_of_I2C1_DO_ADDRESS_NACK 01A4                  wr2RegCompleteHandler@ptr 0079  
          __end_of_I2C1_DO_SEND_ADR_WRITE 03A5                             _I2C1_DO_RESET 03C3  
                   I2C1_Close@returnValue 0044                  ?_rdBlkRegCompleteHandler 0079  
                     I2C1_SetCallback@idx 0047                 __size_ofi1_I2C1_SetBuffer 0010  
                     I2C1_SetCallback@ptr 0045                      ??_I2C1_MasterSendAck 0070  
                  ?_rd2RegCompleteHandler 0079              __end_of_I2C1_MasterOperation 02A8  
                  ?_wr2RegCompleteHandler 0079                      ??_I2C1_MasterStartRx 0070  
                         ?_I2C1_MasterFsm 0070                           ?_I2C1_MasterIsr 0070  
                   _I2C1_MasterDisableIrq 040B                   ??_OSCILLATOR_Initialize 0043  
                         ?_I2C1_SetBuffer 0043                    ??_I2C1_DO_SEND_RESTART 0070  
                          ?_I2C1_DO_RESET 0070                     __size_of_I2C1_DO_IDLE 0005  
                   __size_of_I2C1_DO_RCEN 0007                                  __ptext10 021F  
                                __ptext11 00D0                                  __ptext20 040E  
                                __ptext12 03B2                                  __ptext21 0411  
                                __ptext13 035E                                  __ptext30 03D2  
                                __ptext14 0405                                  __ptext31 03D7  
                                __ptext23 03F9                                  __ptext15 03BE  
                                __ptext40 03EB                                  __ptext32 03DC  
                                __ptext24 01A4                                  __ptext16 028C  
                                __ptext41 0149                                  __ptext33 03E1  
                                __ptext25 0414                                  __ptext17 0408  
                                __ptext50 0428                                  __ptext42 0417  
                                __ptext34 03E6                                  __ptext26 0178  
                                __ptext18 02A8                                  __ptext51 02C4  
                                __ptext43 03B8                                  __ptext35 03A5  
                                __ptext27 03C3                                  __ptext19 040B  
                                __ptext60 0423                                  __ptext52 02DC  
                                __ptext44 03F0                                  __ptext36 008A  
                                __ptext28 03C8                                  __ptext53 02ED  
                                __ptext45 03FD                                  __ptext37 0035  
                                __ptext29 03CD                                  __ptext54 02FE  
                                __ptext46 041A                                  __ptext38 039D  
                                __ptext55 030F                                  __ptext47 0401  
                                __ptext39 038C                                  __ptext56 0340  
                                __ptext48 041D                                  __ptext57 036C  
                                __ptext49 0426                                  __ptext58 0246  
                                __ptext59 0420                              _SSP1CON1bits 0215  
                            _SSP1CON2bits 0216                  _I2C1_CallbackReturnReset 0426  
                           __size_of_main 0027                               ?_I2C1_DO_RX 0070  
                             ?_I2C1_DO_TX 0070               __end_of_I2C1_MasterClearIrq 0414  
            __end_of_I2C1_DO_RX_NACK_STOP 03D2                               ?_I2C1_Close 0070  
                                int$flags 007E           __end_of_I2C1_DO_RX_NACK_RESTART 03CD  
                I2C1_MasterOperation@read 0044        __end_of_INTERRUPT_InterruptManager 0027  
              _INTERRUPT_InterruptManager 0004                              _SSP1STATbits 0214  
          __size_of_I2C1_DO_SEND_ADR_READ 0009             __end_of_I2C1_DO_SEND_ADR_READ 0395  
                            _I2C1_DO_IDLE 03EB                              _I2C1_DO_RCEN 03A5  
             __end_of_I2C1_MasterSendNack 0405                                _INTCONbits 000B  
          I2C1_SetAddressNackCallback@ptr 004A                      _I2C1_MasterEnableIrq 0405  
                      i1_I2C1_SetCallback 0246                      _I2C1_MasterGetRxData 041A  
                   _I2C1_MasterSendTxData 03F0                   __size_of_WDT_Initialize 0004  
                   i1_I2C1_MasterClearIrq 0414                                  intlevel1 0000  
                __end_of_I2C1_MasterClose 0411                       ?i1_I2C1_SetCallback 0070  
                 ?_PIN_MANAGER_Initialize 0070                  __end_of_I2C1_MasterStart 040B  
                __end_of_I2C1_MasterWrite 03C3                   I2C1_WriteNBytes@address 004F  
                       __CFG_CLKOUTEN$OFF 0000                          ??_I2C1_DO_RX_ACK 0070  
                 _I2C1_CallbackReturnStop 0428                      _I2C1_DO_ADDRESS_NACK 0178  
                  ?_I2C1_MasterDisableIrq 0070                          _I2C1_WriteNBytes 01CF  
                __size_of_I2C1_MasterOpen 000E                  __size_of_I2C1_MasterStop 0003  
                __size_of_I2C1_Initialize 000A                      ??i1_I2C1_SetCallback 0073  
                           __pstringtext1 026C                  __end_of_I2C1_SetCallback 0246  
                              _SSP1DATPPS 0E21                                _SSP1CLKPPS 0E20  
                     __size_of_I2C1_DO_RX 0046                       __size_of_I2C1_DO_TX 0055  
                         ??_I2C1_DO_RESET 0070                      _I2C1_MasterOperation 028C  
                   ?_I2C1_MasterEnableIrq 0070                       __size_of_I2C1_Close 001C  
                   ?_I2C1_MasterGetRxData 0070                    i1I2C1_SetBuffer@buffer 0073  
                        i1_I2C1_SetBuffer 0340            __end_of_PIN_MANAGER_Initialize 0149  
       __size_of_I2C1_SetInterruptHandler 0006            __size_of_rd1RegCompleteHandler 0011  
               ?_I2C1_SetInterruptHandler 0043             __end_of_rd1RegCompleteHandler 030F  
                      __size_of_I2C1_Open 0045            __size_of_wr1RegCompleteHandler 0011  
           __end_of_wr1RegCompleteHandler 02ED                 __size_of_I2C1_DO_TX_EMPTY 002F  
                   ?_I2C1_DO_ADDRESS_NACK 0070  
